; Listing generated by Microsoft (R) Optimizing Compiler Version 19.28.29913.0 

include listing.inc

INCLUDELIB MSVCRTD
INCLUDELIB OLDNAMES

PUBLIC	??_C@_01GFHCPBMG@C@				; `string'
PUBLIC	?powers_of_10_64@?$basic_data@X@detail@v7@fmt@@2QB_KB ; fmt::v7::detail::basic_data<void>::powers_of_10_64
PUBLIC	?zero_or_powers_of_10_32_new@?$basic_data@X@detail@v7@fmt@@2QBIB ; fmt::v7::detail::basic_data<void>::zero_or_powers_of_10_32_new
PUBLIC	?zero_or_powers_of_10_64_new@?$basic_data@X@detail@v7@fmt@@2QB_KB ; fmt::v7::detail::basic_data<void>::zero_or_powers_of_10_64_new
PUBLIC	?grisu_pow10_significands@?$basic_data@X@detail@v7@fmt@@2QB_KB ; fmt::v7::detail::basic_data<void>::grisu_pow10_significands
PUBLIC	?grisu_pow10_exponents@?$basic_data@X@detail@v7@fmt@@2QBFB ; fmt::v7::detail::basic_data<void>::grisu_pow10_exponents
PUBLIC	?divtest_table_for_pow5_32@?$basic_data@X@detail@v7@fmt@@2QBU?$divtest_table_entry@I@234@B ; fmt::v7::detail::basic_data<void>::divtest_table_for_pow5_32
PUBLIC	?divtest_table_for_pow5_64@?$basic_data@X@detail@v7@fmt@@2QBU?$divtest_table_entry@_K@234@B ; fmt::v7::detail::basic_data<void>::divtest_table_for_pow5_64
PUBLIC	?dragonbox_pow10_significands_64@?$basic_data@X@detail@v7@fmt@@2QB_KB ; fmt::v7::detail::basic_data<void>::dragonbox_pow10_significands_64
PUBLIC	?powers_of_5_64@?$basic_data@X@detail@v7@fmt@@2QB_KB ; fmt::v7::detail::basic_data<void>::powers_of_5_64
PUBLIC	?dragonbox_pow10_recovery_errors@?$basic_data@X@detail@v7@fmt@@2QBIB ; fmt::v7::detail::basic_data<void>::dragonbox_pow10_recovery_errors
PUBLIC	?digits@?$basic_data@X@detail@v7@fmt@@2QAY01$$CBDA ; fmt::v7::detail::basic_data<void>::digits
PUBLIC	?hex_digits@?$basic_data@X@detail@v7@fmt@@2QBDB	; fmt::v7::detail::basic_data<void>::hex_digits
PUBLIC	?foreground_color@?$basic_data@X@detail@v7@fmt@@2QBDB ; fmt::v7::detail::basic_data<void>::foreground_color
PUBLIC	?background_color@?$basic_data@X@detail@v7@fmt@@2QBDB ; fmt::v7::detail::basic_data<void>::background_color
PUBLIC	?reset_color@?$basic_data@X@detail@v7@fmt@@2QBDB ; fmt::v7::detail::basic_data<void>::reset_color
PUBLIC	?wreset_color@?$basic_data@X@detail@v7@fmt@@2QB_WB ; fmt::v7::detail::basic_data<void>::wreset_color
PUBLIC	?signs@?$basic_data@X@detail@v7@fmt@@2QBDB	; fmt::v7::detail::basic_data<void>::signs
PUBLIC	?left_padding_shifts@?$basic_data@X@detail@v7@fmt@@2QBDB ; fmt::v7::detail::basic_data<void>::left_padding_shifts
PUBLIC	?right_padding_shifts@?$basic_data@X@detail@v7@fmt@@2QBDB ; fmt::v7::detail::basic_data<void>::right_padding_shifts
PUBLIC	?zero_or_powers_of_10_32@?$basic_data@X@detail@v7@fmt@@2QBIB ; fmt::v7::detail::basic_data<void>::zero_or_powers_of_10_32
PUBLIC	?zero_or_powers_of_10_64@?$basic_data@X@detail@v7@fmt@@2QB_KB ; fmt::v7::detail::basic_data<void>::zero_or_powers_of_10_64
PUBLIC	??_C@_01GAPBHFFA@T@				; `string'
PUBLIC	??_C@_01CKDDGHAB@D@				; `string'
PUBLIC	??_C@_01JPJNBJEM@I@				; `string'
PUBLIC	??_C@_01ELNMCGJD@W@				; `string'
PUBLIC	??_C@_01DDCIFGEA@E@				; `string'
PUBLIC	??_C@_01MJMHLOMK@O@				; `string'
PUBLIC	??_C@_02PCIJFNDE@?$AN?6@			; `string'
PUBLIC	??_C@_03KOEHGMDN@Sun@				; `string'
PUBLIC	??_C@_03PDAGKDH@Mon@				; `string'
PUBLIC	??_C@_03NAGEINEP@Tue@				; `string'
PUBLIC	??_C@_03MHOMLAJA@Wed@				; `string'
PUBLIC	??_C@_03IOFIKPDN@Thu@				; `string'
PUBLIC	??_C@_03IDIOELNC@Fri@				; `string'
PUBLIC	??_C@_03FEFJNEK@Sat@				; `string'
PUBLIC	??_C@_06OOPIFAJ@Sunday@				; `string'
PUBLIC	??_C@_06JLEDEDGH@Monday@			; `string'
PUBLIC	??_C@_07BAAGCFCM@Tuesday@			; `string'
PUBLIC	??_C@_09DLIGFAKA@Wednesday@			; `string'
PUBLIC	??_C@_08HACCIKIA@Thursday@			; `string'
PUBLIC	??_C@_06JECMNKMI@Friday@			; `string'
PUBLIC	??_C@_08INBOOONO@Saturday@			; `string'
PUBLIC	??_C@_03JIHJHPIE@Jan@				; `string'
PUBLIC	??_C@_03HJBDCHOM@Feb@				; `string'
PUBLIC	??_C@_03ODNJBKGA@Mar@				; `string'
PUBLIC	??_C@_03LEOLGMJP@Apr@				; `string'
PUBLIC	??_C@_03CNMDKL@May@				; `string'
PUBLIC	??_C@_03IDFGHECI@Jun@				; `string'
PUBLIC	??_C@_03LBGABGKK@Jul@				; `string'
PUBLIC	??_C@_03IFJFEIGA@Aug@				; `string'
PUBLIC	??_C@_04FFDEGOGK@Sept@				; `string'
PUBLIC	??_C@_03BMAOKBAD@Oct@				; `string'
PUBLIC	??_C@_03JPJOFNIA@Nov@				; `string'
PUBLIC	??_C@_03MKABNOCG@Dec@				; `string'
PUBLIC	??_C@_07CGJPFGJA@January@			; `string'
PUBLIC	??_C@_08GNJGEPFN@February@			; `string'
PUBLIC	??_C@_05HPCKOFNC@March@				; `string'
PUBLIC	??_C@_05DMJDNLEJ@April@				; `string'
PUBLIC	??_C@_04CNLMGBGM@June@				; `string'
PUBLIC	??_C@_04MIEPOIFP@July@				; `string'
PUBLIC	??_C@_06LBBHFDDG@August@			; `string'
PUBLIC	??_C@_09BHHEALKD@September@			; `string'
PUBLIC	??_C@_07JJNFCEND@October@			; `string'
PUBLIC	??_C@_08HCHEGEOA@November@			; `string'
PUBLIC	??_C@_08EDHMEBNP@December@			; `string'
PUBLIC	?Instance@Application@Immortal@@2PEAV12@EA	; Immortal::Application::Instance
PUBLIC	??$in_place_type@_K@std@@3U?$in_place_type_t@_K@1@B ; std::in_place_type<unsigned __int64>
_BSS	SEGMENT
?Instance@Application@Immortal@@2PEAV12@EA DQ 01H DUP (?) ; Immortal::Application::Instance
_BSS	ENDS
msvcjmc	SEGMENT
__E07E3466_vcruntime_new@h DB 01H
__0795C148_cstddef DB 01H
__CFAB6899_corecrt_math@h DB 01H
__6F6DB8BE_stdlib@h DB 01H
__A25E1BE5_cstdlib DB 01H
__EC7B9A23_type_traits DB 01H
__FB409F48_malloc@h DB 01H
__E566DCAF_vcruntime_exception@h DB 01H
__AD605935_exception DB 01H
__26794E1A_corecrt_stdio_config@h DB 01H
__70C2CCD0_corecrt_wstdio@h DB 01H
__2DEF3792_stdio@h DB 01H
__1A085F4D_corecrt_memcpy_s@h DB 01H
__550D25D9_corecrt_memory@h DB 01H
__7191215D_corecrt_wstring@h DB 01H
__E91E2C1A_string@h DB 01H
__34BDBAE7_corecrt_wconio@h DB 01H
__D7F6E725_corecrt_wio@h DB 01H
__2F8210E9_corecrt_wtime@h DB 01H
__43661C34_stat@h DB 01H
__D3C9D46F_wchar@h DB 01H
__A76D0D7E_vcruntime_typeinfo@h DB 01H
__2FCD1B4C_typeinfo DB 01H
__B8DC40D2_limits DB 01H
__5F12E855_xutility DB 01H
__FFC6FDAD_xmemory DB 01H
__04724C5C_memory DB 01H
__8EA014F5_cmath DB 01H
__E92A0A0B_func_common@inl DB 01H
__F19BF1FA_type_half@inl DB 01H
__F3C6851C_func_packing@inl DB 01H
__98A58A39_func_integer@inl DB 01H
__E42C83A8_type_float@hpp DB 01H
__F365FAA2_epsilon@inl DB 01H
__D85DDDE9_Vector@h DB 01H
__6A625013_time@h DB 01H
__32344C5C_xthreads@h DB 01H
__D3E91C10_atomic DB 01H
__662BF9EA_null_mutex@h DB 01H
__E2138D5B_ratio DB 01H
__28830DB4_tuple DB 01H
__CE671502_xpolymorphic_allocator@h DB 01H
__8B157B31_xstring DB 01H
__242E6368_stdexcept DB 01H
__4AD2DB97_xcall_once@h DB 01H
__F58FC9B7_system_error DB 01H
__28371B53_xfacet DB 01H
__F2C765AC_ctype@h DB 01H
__3044F884_xlocinfo DB 01H
__542B0F00_xlocale DB 01H
__09A18F97_xiosbase DB 01H
__CAAC6917_xlocnum DB 01H
__36E60BFA_ios DB 01H
__70A1CAC0_string DB 01H
__DC314658_chrono DB 01H
__873E1861_xbit_ops@h DB 01H
__E10FD493_xhash DB 01H
__5067CDB7_functional DB 01H
__3BD4D6CC_core@h DB 01H
__47AC1BE1_algorithm DB 01H
__7827F87C_xlocmes DB 01H
__E1CE7C2F_xlocmon DB 01H
__94595196_xloctime DB 01H
__39A30D76_corecrt_io@h DB 01H
__EE4A63EB_format@h DB 01H
__6F65D29C_format-inl@h DB 01H
__5676306D_common-inl@h DB 01H
__8D6D647F_common@h DB 01H
__DF3F34EA_thread DB 01H
__F0BE870B_mutex DB 01H
__4595F6C8_condition_variable DB 01H
__091A9B5D_periodic_worker-inl@h DB 01H
__271454B7_periodic_worker@h DB 01H
__71F46684_basetsd@h DB 01H
__DD764790_guiddef@h DB 01H
__BB539B02_winnt@h DB 01H
__A0074537_processthreadsapi@h DB 01H
__2E3464E2_memoryapi@h DB 01H
__CB91E480_winerror@h DB 01H
__F3F8EFFE_winbase@h DB 01H
__9B10A489_winuser@h DB 01H
__BECA5628_stralign@h DB 01H
__9E5AD599_os-inl@h DB 01H
__F2CF8CA6_log_msg-inl@h DB 01H
__7C572DAC_log_msg@h DB 01H
__431E097C_log_msg_buffer-inl@h DB 01H
__F33733CF_circular_q@h DB 01H
__EC3A5CFE_backtracer-inl@h DB 01H
__9AFE2988_backtracer@h DB 01H
__7CD3236C_sink-inl@h DB 01H
__37FEF3D7_fmt_helper@h DB 01H
__02B1B42B_formatter@h DB 01H
__30B0F812_pattern_formatter-inl@h DB 01H
__6DC7A005_pattern_formatter@h DB 01H
__97505F39_logger-inl@h DB 01H
__C5E7F764_logger@h DB 01H
__DD330A81_console_globals@h DB 01H
__CC9D6D1B_registry-inl@h DB 01H
__D86432C9_registry@h DB 01H
__199697C6_spdlog-inl@h DB 01H
__6759F186_Log@h DB 01H
__33AD0C4C_xfilesystem_abi@h DB 01H
__3965C4AC_list DB 01H
__5E96D2BC_filesystem DB 01H
__2E5A4D93_entt@hpp DB 01H
__722A5888_Event@h DB 01H
__9FABBEA4_MouseEvent@h DB 01H
__EF97032C_Camera@h DB 01H
__913FC79E_EditorCamera@h DB 01H
__EAB9FF5C_Texture@h DB 01H
__4ADAE597_Object@h DB 01H
__9FB8EC10_Shader@h DB 01H
__4E654373_Buffer@h DB 01H
__17100B85_types@h DB 01H
__4F7A2F04_texture@h DB 01H
__ACBB1427_mesh@h DB 01H
__65125E7D_light@h DB 01H
__26F2300B_camera@h DB 01H
__B5970E89_material@inl DB 01H
__04709E16_material@h DB 01H
__95C6905D_anim@h DB 01H
__273375B0_metadata@h DB 01H
__175054C7_scene@h DB 01H
__BBB5C971_Importer@hpp DB 01H
__F34F9600_Logger@hpp DB 01H
__F084CCA5_LogStream@hpp DB 01H
__E9DBBD31_NullLogger@hpp DB 01H
__B9D899B4_Mesh@h DB 01H
__103D5F53_Framebuffer@h DB 01H
__32C98A86_Scene@h DB 01H
__6CE654FE_RendererAPI@h DB 01H
__6B4488AA_RenderCommand@h DB 01H
__8B8699E2_OrthographicCamera@h DB 01H
__3119A4A3_Renderer@h DB 01H
__E496F2C2_SceneCamera@h DB 01H
__6D40049E_type_vec3@inl DB 01H
__ACC20D39_type_vec3@hpp DB 01H
__038BDE1B_Component@h DB 01H
__C15CB2FB_Entity@h DB 01H
__82F65976_ScriptableObject@h DB 01H
__AC266202_Timestep@h DB 01H
__CF282720_ApplicationEvent@h DB 01H
__77C3E480_KeyEvent@h DB 01H
__37D3FC3C_GraphicsContext@h DB 01H
__09E2F1B4_Window@h DB 01H
__5773CB51_Layer@h DB 01H
__7FF4237A_LayerStack@h DB 01H
__2CF55FB9_UILayer@h DB 01H
__AD991F7F_Input@h DB 01H
__7AC114EC_Application@h DB 01H
__CF802B0A_CubeController@cpp DB 01H
__F5713032_vector DB 01H
__6691780C_Delegate@h DB 01H
__23746A41_quaternion@h DB 01H
__47F678A0_vector2@h DB 01H
__9D566C09_color4@h DB 01H
__46341297_vector3@h DB 01H
__C105F2A8_unordered_map DB 01H
__EE8CDA83_initializer_list DB 01H
__AF9FBEF1_locale DB 01H
__24EBE0FE_istream DB 01H
__473BD5C4_ostream DB 01H
__268EDBD4_streambuf DB 01H
__95539E6E_utility DB 01H
__74359554_iosfwd DB 01H
__4EBE5F15_iterator DB 01H
__DF60D88E_type_vec4@inl DB 01H
__50202D2E_type_vec2@inl DB 01H
__91A22489_type_vec2@hpp DB 01H
__1EE2D129_type_vec4@hpp DB 01H
__E125327E_type_mat4x4@inl DB 01H
__A740B41B_type_quat@inl DB 01H
__02566B61_func_trigonometric@inl DB 01H
__9633F874_matrix_transform@inl DB 01H
__AC77DE17_quaternion@hpp DB 01H
__F4BAA632_func_matrix@inl DB 01H
__C0E05344_matrix_clip_space@inl DB 01H
__624C097C_xstddef DB 01H
__73012ACC_vector3@inl DB 01H
__7963EB4C_matrix4x4@inl DB 01H
__F48E43CB_matrix4x4@h DB 01H
__FABDD41B_quaternion@inl DB 01H
__0BA80954_Core@h DB 01H
__A76CD5E3_xatomic@h DB 01H
__18605132__vectorize@hpp DB 01H
__E7580963_compute_common@hpp DB 01H
__BF7FDB93_array DB 01H
__F2321E2E_func_geometric@inl DB 01H
__D109C293_quaternion@inl DB 01H
__CEC7298F_wincolor_sink-inl@h DB 01H
__0DD53A46_sink@h DB 01H
__20A73BD9_type_mat4x4@hpp DB 01H
__A87449A6_xtr1common DB 01H
__01B6B7AD_func_exponential@inl DB 01H
__96A2D0E0_type_mat3x3@inl DB 01H
__8397A23C_log_msg_buffer@h DB 01H
__5720D947_type_mat3x3@hpp DB 01H
__180E10EE_wincolor_sink@h DB 01H
__1A27998E_predefined C++ types (compiler internal) DB 01H
msvcjmc	ENDS
;	COMDAT ??$in_place_type@_K@std@@3U?$in_place_type_t@_K@1@B
CONST	SEGMENT
??$in_place_type@_K@std@@3U?$in_place_type_t@_K@1@B	ORG $+1 ; std::in_place_type<unsigned __int64>
CONST	ENDS
;	COMDAT ??_C@_08EDHMEBNP@December@
CONST	SEGMENT
??_C@_08EDHMEBNP@December@ DB 'December', 00H		; `string'
CONST	ENDS
;	COMDAT ??_C@_08HCHEGEOA@November@
CONST	SEGMENT
??_C@_08HCHEGEOA@November@ DB 'November', 00H		; `string'
CONST	ENDS
;	COMDAT ??_C@_07JJNFCEND@October@
CONST	SEGMENT
??_C@_07JJNFCEND@October@ DB 'October', 00H		; `string'
CONST	ENDS
;	COMDAT ??_C@_09BHHEALKD@September@
CONST	SEGMENT
??_C@_09BHHEALKD@September@ DB 'September', 00H		; `string'
CONST	ENDS
;	COMDAT ??_C@_06LBBHFDDG@August@
CONST	SEGMENT
??_C@_06LBBHFDDG@August@ DB 'August', 00H		; `string'
CONST	ENDS
;	COMDAT ??_C@_04MIEPOIFP@July@
CONST	SEGMENT
??_C@_04MIEPOIFP@July@ DB 'July', 00H			; `string'
CONST	ENDS
;	COMDAT ??_C@_04CNLMGBGM@June@
CONST	SEGMENT
??_C@_04CNLMGBGM@June@ DB 'June', 00H			; `string'
CONST	ENDS
;	COMDAT ??_C@_05DMJDNLEJ@April@
CONST	SEGMENT
??_C@_05DMJDNLEJ@April@ DB 'April', 00H			; `string'
CONST	ENDS
;	COMDAT ??_C@_05HPCKOFNC@March@
CONST	SEGMENT
??_C@_05HPCKOFNC@March@ DB 'March', 00H			; `string'
CONST	ENDS
;	COMDAT ??_C@_08GNJGEPFN@February@
CONST	SEGMENT
??_C@_08GNJGEPFN@February@ DB 'February', 00H		; `string'
CONST	ENDS
;	COMDAT ??_C@_07CGJPFGJA@January@
CONST	SEGMENT
??_C@_07CGJPFGJA@January@ DB 'January', 00H		; `string'
CONST	ENDS
;	COMDAT ??_C@_03MKABNOCG@Dec@
CONST	SEGMENT
??_C@_03MKABNOCG@Dec@ DB 'Dec', 00H			; `string'
CONST	ENDS
;	COMDAT ??_C@_03JPJOFNIA@Nov@
CONST	SEGMENT
??_C@_03JPJOFNIA@Nov@ DB 'Nov', 00H			; `string'
CONST	ENDS
;	COMDAT ??_C@_03BMAOKBAD@Oct@
CONST	SEGMENT
??_C@_03BMAOKBAD@Oct@ DB 'Oct', 00H			; `string'
CONST	ENDS
;	COMDAT ??_C@_04FFDEGOGK@Sept@
CONST	SEGMENT
??_C@_04FFDEGOGK@Sept@ DB 'Sept', 00H			; `string'
CONST	ENDS
;	COMDAT ??_C@_03IFJFEIGA@Aug@
CONST	SEGMENT
??_C@_03IFJFEIGA@Aug@ DB 'Aug', 00H			; `string'
CONST	ENDS
;	COMDAT ??_C@_03LBGABGKK@Jul@
CONST	SEGMENT
??_C@_03LBGABGKK@Jul@ DB 'Jul', 00H			; `string'
CONST	ENDS
;	COMDAT ??_C@_03IDFGHECI@Jun@
CONST	SEGMENT
??_C@_03IDFGHECI@Jun@ DB 'Jun', 00H			; `string'
CONST	ENDS
;	COMDAT ??_C@_03CNMDKL@May@
CONST	SEGMENT
??_C@_03CNMDKL@May@ DB 'May', 00H			; `string'
CONST	ENDS
;	COMDAT ??_C@_03LEOLGMJP@Apr@
CONST	SEGMENT
??_C@_03LEOLGMJP@Apr@ DB 'Apr', 00H			; `string'
CONST	ENDS
;	COMDAT ??_C@_03ODNJBKGA@Mar@
CONST	SEGMENT
??_C@_03ODNJBKGA@Mar@ DB 'Mar', 00H			; `string'
CONST	ENDS
;	COMDAT ??_C@_03HJBDCHOM@Feb@
CONST	SEGMENT
??_C@_03HJBDCHOM@Feb@ DB 'Feb', 00H			; `string'
CONST	ENDS
;	COMDAT ??_C@_03JIHJHPIE@Jan@
CONST	SEGMENT
??_C@_03JIHJHPIE@Jan@ DB 'Jan', 00H			; `string'
CONST	ENDS
;	COMDAT ??_C@_08INBOOONO@Saturday@
CONST	SEGMENT
??_C@_08INBOOONO@Saturday@ DB 'Saturday', 00H		; `string'
CONST	ENDS
;	COMDAT ??_C@_06JECMNKMI@Friday@
CONST	SEGMENT
??_C@_06JECMNKMI@Friday@ DB 'Friday', 00H		; `string'
CONST	ENDS
;	COMDAT ??_C@_08HACCIKIA@Thursday@
CONST	SEGMENT
??_C@_08HACCIKIA@Thursday@ DB 'Thursday', 00H		; `string'
CONST	ENDS
;	COMDAT ??_C@_09DLIGFAKA@Wednesday@
CONST	SEGMENT
??_C@_09DLIGFAKA@Wednesday@ DB 'Wednesday', 00H		; `string'
CONST	ENDS
;	COMDAT ??_C@_07BAAGCFCM@Tuesday@
CONST	SEGMENT
??_C@_07BAAGCFCM@Tuesday@ DB 'Tuesday', 00H		; `string'
CONST	ENDS
;	COMDAT ??_C@_06JLEDEDGH@Monday@
CONST	SEGMENT
??_C@_06JLEDEDGH@Monday@ DB 'Monday', 00H		; `string'
CONST	ENDS
;	COMDAT ??_C@_06OOPIFAJ@Sunday@
CONST	SEGMENT
??_C@_06OOPIFAJ@Sunday@ DB 'Sunday', 00H		; `string'
CONST	ENDS
;	COMDAT ??_C@_03FEFJNEK@Sat@
CONST	SEGMENT
??_C@_03FEFJNEK@Sat@ DB 'Sat', 00H			; `string'
CONST	ENDS
;	COMDAT ??_C@_03IDIOELNC@Fri@
CONST	SEGMENT
??_C@_03IDIOELNC@Fri@ DB 'Fri', 00H			; `string'
CONST	ENDS
;	COMDAT ??_C@_03IOFIKPDN@Thu@
CONST	SEGMENT
??_C@_03IOFIKPDN@Thu@ DB 'Thu', 00H			; `string'
CONST	ENDS
;	COMDAT ??_C@_03MHOMLAJA@Wed@
CONST	SEGMENT
??_C@_03MHOMLAJA@Wed@ DB 'Wed', 00H			; `string'
CONST	ENDS
;	COMDAT ??_C@_03NAGEINEP@Tue@
CONST	SEGMENT
??_C@_03NAGEINEP@Tue@ DB 'Tue', 00H			; `string'
CONST	ENDS
;	COMDAT ??_C@_03PDAGKDH@Mon@
CONST	SEGMENT
??_C@_03PDAGKDH@Mon@ DB 'Mon', 00H			; `string'
CONST	ENDS
;	COMDAT ??_C@_03KOEHGMDN@Sun@
CONST	SEGMENT
??_C@_03KOEHGMDN@Sun@ DB 'Sun', 00H			; `string'
CONST	ENDS
;	COMDAT ??_C@_02PCIJFNDE@?$AN?6@
CONST	SEGMENT
??_C@_02PCIJFNDE@?$AN?6@ DB 0dH, 0aH, 00H		; `string'
CONST	ENDS
CONST	SEGMENT
?default_eol@os@details@spdlog@@3QEBDEB DQ FLAT:??_C@_02PCIJFNDE@?$AN?6@ ; spdlog::details::os::default_eol
?folder_seps@os@details@spdlog@@3QBDB DB 05cH		; spdlog::details::os::folder_seps
	DB	02fH
	DB	00H
	ORG $+1
?folder_seps_filename@os@details@spdlog@@3QBDB DB 05cH	; spdlog::details::os::folder_seps_filename
	DB	02fH
	DB	00H
	ORG $+1
?months@details@spdlog@@3V?$array@PEBD$0M@@std@@B DQ FLAT:??_C@_03JIHJHPIE@Jan@ ; spdlog::details::months
	DQ	FLAT:??_C@_03HJBDCHOM@Feb@
	DQ	FLAT:??_C@_03ODNJBKGA@Mar@
	DQ	FLAT:??_C@_03LEOLGMJP@Apr@
	DQ	FLAT:??_C@_03CNMDKL@May@
	DQ	FLAT:??_C@_03IDFGHECI@Jun@
	DQ	FLAT:??_C@_03LBGABGKK@Jul@
	DQ	FLAT:??_C@_03IFJFEIGA@Aug@
	DQ	FLAT:??_C@_04FFDEGOGK@Sept@
	DQ	FLAT:??_C@_03BMAOKBAD@Oct@
	DQ	FLAT:??_C@_03JPJOFNIA@Nov@
	DQ	FLAT:??_C@_03MKABNOCG@Dec@
?full_months@details@spdlog@@3V?$array@PEBD$0M@@std@@B DQ FLAT:??_C@_07CGJPFGJA@January@ ; spdlog::details::full_months
	DQ	FLAT:??_C@_08GNJGEPFN@February@
	DQ	FLAT:??_C@_05HPCKOFNC@March@
	DQ	FLAT:??_C@_05DMJDNLEJ@April@
	DQ	FLAT:??_C@_03CNMDKL@May@
	DQ	FLAT:??_C@_04CNLMGBGM@June@
	DQ	FLAT:??_C@_04MIEPOIFP@July@
	DQ	FLAT:??_C@_06LBBHFDDG@August@
	DQ	FLAT:??_C@_09BHHEALKD@September@
	DQ	FLAT:??_C@_07JJNFCEND@October@
	DQ	FLAT:??_C@_08HCHEGEOA@November@
	DQ	FLAT:??_C@_08EDHMEBNP@December@
CONST	ENDS
;	COMDAT ??_C@_01MJMHLOMK@O@
CONST	SEGMENT
??_C@_01MJMHLOMK@O@ DB 'O', 00H				; `string'
CONST	ENDS
;	COMDAT ??_C@_01DDCIFGEA@E@
CONST	SEGMENT
??_C@_01DDCIFGEA@E@ DB 'E', 00H				; `string'
CONST	ENDS
;	COMDAT ??_C@_01ELNMCGJD@W@
CONST	SEGMENT
??_C@_01ELNMCGJD@W@ DB 'W', 00H				; `string'
CONST	ENDS
;	COMDAT ??_C@_01JPJNBJEM@I@
CONST	SEGMENT
??_C@_01JPJNBJEM@I@ DB 'I', 00H				; `string'
CONST	ENDS
;	COMDAT ??_C@_01CKDDGHAB@D@
CONST	SEGMENT
??_C@_01CKDDGHAB@D@ DB 'D', 00H				; `string'
CONST	ENDS
;	COMDAT ??_C@_01GAPBHFFA@T@
CONST	SEGMENT
??_C@_01GAPBHFFA@T@ DB 'T', 00H				; `string'
CONST	ENDS
;	COMDAT ?zero_or_powers_of_10_64@?$basic_data@X@detail@v7@fmt@@2QB_KB
CONST	SEGMENT
?zero_or_powers_of_10_64@?$basic_data@X@detail@v7@fmt@@2QB_KB DQ 0000000000000000H ; fmt::v7::detail::basic_data<void>::zero_or_powers_of_10_64
	DQ	000000000000000aH
	DQ	0000000000000064H
	DQ	00000000000003e8H
	DQ	0000000000002710H
	DQ	00000000000186a0H
	DQ	00000000000f4240H
	DQ	0000000000989680H
	DQ	0000000005f5e100H
	DQ	000000003b9aca00H
	DQ	00000002540be400H
	DQ	000000174876e800H
	DQ	000000e8d4a51000H
	DQ	000009184e72a000H
	DQ	00005af3107a4000H
	DQ	00038d7ea4c68000H
	DQ	002386f26fc10000H
	DQ	016345785d8a0000H
	DQ	0de0b6b3a7640000H
	DQ	8ac7230489e80000H
CONST	ENDS
;	COMDAT ?zero_or_powers_of_10_32@?$basic_data@X@detail@v7@fmt@@2QBIB
CONST	SEGMENT
?zero_or_powers_of_10_32@?$basic_data@X@detail@v7@fmt@@2QBIB DD 00H ; fmt::v7::detail::basic_data<void>::zero_or_powers_of_10_32
	DD	0aH
	DD	064H
	DD	03e8H
	DD	02710H
	DD	0186a0H
	DD	0f4240H
	DD	0989680H
	DD	05f5e100H
	DD	03b9aca00H
CONST	ENDS
;	COMDAT ?right_padding_shifts@?$basic_data@X@detail@v7@fmt@@2QBDB
CONST	SEGMENT
?right_padding_shifts@?$basic_data@X@detail@v7@fmt@@2QBDB DB 00H ; fmt::v7::detail::basic_data<void>::right_padding_shifts
	DB	01fH
	DB	00H
	DB	01H
	DB	00H
CONST	ENDS
;	COMDAT ?left_padding_shifts@?$basic_data@X@detail@v7@fmt@@2QBDB
CONST	SEGMENT
?left_padding_shifts@?$basic_data@X@detail@v7@fmt@@2QBDB DB 01fH ; fmt::v7::detail::basic_data<void>::left_padding_shifts
	DB	01fH
	DB	00H
	DB	01H
	DB	00H
CONST	ENDS
;	COMDAT ?signs@?$basic_data@X@detail@v7@fmt@@2QBDB
CONST	SEGMENT
?signs@?$basic_data@X@detail@v7@fmt@@2QBDB DB 00H	; fmt::v7::detail::basic_data<void>::signs
	DB	02dH
	DB	02bH
	DB	020H
CONST	ENDS
;	COMDAT ?wreset_color@?$basic_data@X@detail@v7@fmt@@2QB_WB
CONST	SEGMENT
?wreset_color@?$basic_data@X@detail@v7@fmt@@2QB_WB DB 01bH, 00H, '[', 00H
	DB	'0', 00H, 'm', 00H, 00H, 00H			; fmt::v7::detail::basic_data<void>::wreset_color
CONST	ENDS
;	COMDAT ?reset_color@?$basic_data@X@detail@v7@fmt@@2QBDB
CONST	SEGMENT
?reset_color@?$basic_data@X@detail@v7@fmt@@2QBDB DB 01bH, '[0m', 00H ; fmt::v7::detail::basic_data<void>::reset_color
CONST	ENDS
;	COMDAT ?background_color@?$basic_data@X@detail@v7@fmt@@2QBDB
CONST	SEGMENT
?background_color@?$basic_data@X@detail@v7@fmt@@2QBDB DB 01bH, '[48;2;', 00H ; fmt::v7::detail::basic_data<void>::background_color
CONST	ENDS
;	COMDAT ?foreground_color@?$basic_data@X@detail@v7@fmt@@2QBDB
CONST	SEGMENT
?foreground_color@?$basic_data@X@detail@v7@fmt@@2QBDB DB 01bH, '[38;2;', 00H ; fmt::v7::detail::basic_data<void>::foreground_color
CONST	ENDS
;	COMDAT ?hex_digits@?$basic_data@X@detail@v7@fmt@@2QBDB
CONST	SEGMENT
?hex_digits@?$basic_data@X@detail@v7@fmt@@2QBDB DB '0123456789abcdef', 00H ; fmt::v7::detail::basic_data<void>::hex_digits
CONST	ENDS
;	COMDAT ?digits@?$basic_data@X@detail@v7@fmt@@2QAY01$$CBDA
CONST	SEGMENT
?digits@?$basic_data@X@detail@v7@fmt@@2QAY01$$CBDA DB 030H ; fmt::v7::detail::basic_data<void>::digits
	DB	030H
	DB	030H
	DB	031H
	DB	030H
	DB	032H
	DB	030H
	DB	033H
	DB	030H
	DB	034H
	DB	030H
	DB	035H
	DB	030H
	DB	036H
	DB	030H
	DB	037H
	DB	030H
	DB	038H
	DB	030H
	DB	039H
	DB	031H
	DB	030H
	DB	031H
	DB	031H
	DB	031H
	DB	032H
	DB	031H
	DB	033H
	DB	031H
	DB	034H
	DB	031H
	DB	035H
	DB	031H
	DB	036H
	DB	031H
	DB	037H
	DB	031H
	DB	038H
	DB	031H
	DB	039H
	DB	032H
	DB	030H
	DB	032H
	DB	031H
	DB	032H
	DB	032H
	DB	032H
	DB	033H
	DB	032H
	DB	034H
	DB	032H
	DB	035H
	DB	032H
	DB	036H
	DB	032H
	DB	037H
	DB	032H
	DB	038H
	DB	032H
	DB	039H
	DB	033H
	DB	030H
	DB	033H
	DB	031H
	DB	033H
	DB	032H
	DB	033H
	DB	033H
	DB	033H
	DB	034H
	DB	033H
	DB	035H
	DB	033H
	DB	036H
	DB	033H
	DB	037H
	DB	033H
	DB	038H
	DB	033H
	DB	039H
	DB	034H
	DB	030H
	DB	034H
	DB	031H
	DB	034H
	DB	032H
	DB	034H
	DB	033H
	DB	034H
	DB	034H
	DB	034H
	DB	035H
	DB	034H
	DB	036H
	DB	034H
	DB	037H
	DB	034H
	DB	038H
	DB	034H
	DB	039H
	DB	035H
	DB	030H
	DB	035H
	DB	031H
	DB	035H
	DB	032H
	DB	035H
	DB	033H
	DB	035H
	DB	034H
	DB	035H
	DB	035H
	DB	035H
	DB	036H
	DB	035H
	DB	037H
	DB	035H
	DB	038H
	DB	035H
	DB	039H
	DB	036H
	DB	030H
	DB	036H
	DB	031H
	DB	036H
	DB	032H
	DB	036H
	DB	033H
	DB	036H
	DB	034H
	DB	036H
	DB	035H
	DB	036H
	DB	036H
	DB	036H
	DB	037H
	DB	036H
	DB	038H
	DB	036H
	DB	039H
	DB	037H
	DB	030H
	DB	037H
	DB	031H
	DB	037H
	DB	032H
	DB	037H
	DB	033H
	DB	037H
	DB	034H
	DB	037H
	DB	035H
	DB	037H
	DB	036H
	DB	037H
	DB	037H
	DB	037H
	DB	038H
	DB	037H
	DB	039H
	DB	038H
	DB	030H
	DB	038H
	DB	031H
	DB	038H
	DB	032H
	DB	038H
	DB	033H
	DB	038H
	DB	034H
	DB	038H
	DB	035H
	DB	038H
	DB	036H
	DB	038H
	DB	037H
	DB	038H
	DB	038H
	DB	038H
	DB	039H
	DB	039H
	DB	030H
	DB	039H
	DB	031H
	DB	039H
	DB	032H
	DB	039H
	DB	033H
	DB	039H
	DB	034H
	DB	039H
	DB	035H
	DB	039H
	DB	036H
	DB	039H
	DB	037H
	DB	039H
	DB	038H
	DB	039H
	DB	039H
CONST	ENDS
;	COMDAT ?dragonbox_pow10_recovery_errors@?$basic_data@X@detail@v7@fmt@@2QBIB
CONST	SEGMENT
?dragonbox_pow10_recovery_errors@?$basic_data@X@detail@v7@fmt@@2QBIB DD 050001400H ; fmt::v7::detail::basic_data<void>::dragonbox_pow10_recovery_errors
	DD	054044100H
	DD	054014555H
	DD	055954415H
	DD	054115555H
	DD	01H
	DD	050000000H
	DD	0104000H
	DD	054010004H
	DD	05004001H
	DD	055555544H
	DD	041545555H
	DD	054040551H
	DD	015445545H
	DD	051555514H
	DD	010000015H
	DD	0101100H
	DD	01100015H
	DD	00H
	DD	00H
	DD	00H
	DD	00H
	DD	04450514H
	DD	045414110H
	DD	055555145H
	DD	050544050H
	DD	015040155H
	DD	011054140H
	DD	050111514H
	DD	011451454H
	DD	0400541H
	DD	00H
	DD	055555450H
	DD	010056551H
	DD	010054011H
	DD	055551014H
	DD	069514555H
	DD	05151109H
	DD	0155555H
CONST	ENDS
;	COMDAT ?powers_of_5_64@?$basic_data@X@detail@v7@fmt@@2QB_KB
CONST	SEGMENT
?powers_of_5_64@?$basic_data@X@detail@v7@fmt@@2QB_KB DQ 0000000000000001H ; fmt::v7::detail::basic_data<void>::powers_of_5_64
	DQ	0000000000000005H
	DQ	0000000000000019H
	DQ	000000000000007dH
	DQ	0000000000000271H
	DQ	0000000000000c35H
	DQ	0000000000003d09H
	DQ	000000000001312dH
	DQ	000000000005f5e1H
	DQ	00000000001dcd65H
	DQ	00000000009502f9H
	DQ	0000000002e90eddH
	DQ	000000000e8d4a51H
	DQ	0000000048c27395H
	DQ	000000016bcc41e9H
	DQ	000000071afd498dH
	DQ	0000002386f26fc1H
	DQ	000000b1a2bc2ec5H
	DQ	000003782dace9d9H
	DQ	00001158e460913dH
	DQ	000056bc75e2d631H
	DQ	0001b1ae4d6e2ef5H
	DQ	000878678326eac9H
	DQ	002a5a058fc295edH
	DQ	00d3c21bcecceda1H
	DQ	0422ca8b0a00a425H
	DQ	14adf4b7320334b9H
CONST	ENDS
;	COMDAT ?dragonbox_pow10_significands_64@?$basic_data@X@detail@v7@fmt@@2QB_KB
CONST	SEGMENT
?dragonbox_pow10_significands_64@?$basic_data@X@detail@v7@fmt@@2QB_KB DQ 81ceb32c4b43fcf5H ; fmt::v7::detail::basic_data<void>::dragonbox_pow10_significands_64
	DQ	a2425ff75e14fc32H
	DQ	cad2f7f5359a3b3fH
	DQ	fd87b5f28300ca0eH
	DQ	9e74d1b791e07e49H
	DQ	c612062576589ddbH
	DQ	f79687aed3eec552H
	DQ	9abe14cd44753b53H
	DQ	c16d9a0095928a28H
	DQ	f1c90080baf72cb2H
	DQ	971da05074da7befH
	DQ	bce5086492111aebH
	DQ	ec1e4a7db69561a6H
	DQ	9392ee8e921d5d08H
	DQ	b877aa3236a4b44aH
	DQ	e69594bec44de15cH
	DQ	901d7cf73ab0acdaH
	DQ	b424dc35095cd810H
	DQ	e12e13424bb40e14H
	DQ	8cbccc096f5088ccH
	DQ	afebff0bcb24aaffH
	DQ	dbe6fecebdedd5bfH
	DQ	89705f4136b4a598H
	DQ	abcc77118461cefdH
	DQ	d6bf94d5e57a42bdH
	DQ	8637bd05af6c69b6H
	DQ	a7c5ac471b478424H
	DQ	d1b71758e219652cH
	DQ	83126e978d4fdf3cH
	DQ	a3d70a3d70a3d70bH
	DQ	cccccccccccccccdH
	DQ	8000000000000000H
	DQ	a000000000000000H
	DQ	c800000000000000H
	DQ	fa00000000000000H
	DQ	9c40000000000000H
	DQ	c350000000000000H
	DQ	f424000000000000H
	DQ	9896800000000000H
	DQ	bebc200000000000H
	DQ	ee6b280000000000H
	DQ	9502f90000000000H
	DQ	ba43b74000000000H
	DQ	e8d4a51000000000H
	DQ	9184e72a00000000H
	DQ	b5e620f480000000H
	DQ	e35fa931a0000000H
	DQ	8e1bc9bf04000000H
	DQ	b1a2bc2ec5000000H
	DQ	de0b6b3a76400000H
	DQ	8ac7230489e80000H
	DQ	ad78ebc5ac620000H
	DQ	d8d726b7177a8000H
	DQ	878678326eac9000H
	DQ	a968163f0a57b400H
	DQ	d3c21bcecceda100H
	DQ	84595161401484a0H
	DQ	a56fa5b99019a5c8H
	DQ	cecb8f27f4200f3aH
	DQ	813f3978f8940984H
	DQ	a18f07d736b90be5H
	DQ	c9f2c9cd04674edeH
	DQ	fc6f7c4045812296H
	DQ	9dc5ada82b70b59dH
	DQ	c5371912364ce305H
	DQ	f684df56c3e01bc6H
	DQ	9a130b963a6c115cH
	DQ	c097ce7bc90715b3H
	DQ	f0bdc21abb48db20H
	DQ	96769950b50d88f4H
	DQ	bc143fa4e250eb31H
	DQ	eb194f8e1ae525fdH
	DQ	92efd1b8d0cf37beH
	DQ	b7abc627050305adH
	DQ	e596b7b0c643c719H
	DQ	8f7e32ce7bea5c6fH
	DQ	b35dbf821ae4f38bH
	DQ	e0352f62a19e306eH
CONST	ENDS
;	COMDAT ?divtest_table_for_pow5_64@?$basic_data@X@detail@v7@fmt@@2QBU?$divtest_table_entry@_K@234@B
CONST	SEGMENT
?divtest_table_for_pow5_64@?$basic_data@X@detail@v7@fmt@@2QBU?$divtest_table_entry@_K@234@B DQ 0000000000000001H ; fmt::v7::detail::basic_data<void>::divtest_table_for_pow5_64
	DQ	ffffffffffffffffH
	DQ	cccccccccccccccdH
	DQ	3333333333333333H
	DQ	8f5c28f5c28f5c29H
	DQ	0a3d70a3d70a3d70H
	DQ	1cac083126e978d5H
	DQ	020c49ba5e353f7cH
	DQ	d288ce703afb7e91H
	DQ	0068db8bac710cb2H
	DQ	5d4e8fb00bcbe61dH
	DQ	0014f8b588e368f0H
	DQ	790fb65668c26139H
	DQ	000431bde82d7b63H
	DQ	e5032477ae8d46a5H
	DQ	0000d6bf94d5e57aH
	DQ	c767074b22e90e21H
	DQ	00002af31dc46118H
	DQ	8e47ce423a2e9c6dH
	DQ	0000089705f4136bH
	DQ	4fa7f60d3ed61f49H
	DQ	000001b7cdfd9d7bH
	DQ	0fee64690c913975H
	DQ	00000057f5ff85e5H
	DQ	3662e0e1cf503eb1H
	DQ	000000119799812dH
	DQ	a47a2cf9f6433fbdH
	DQ	0000000384b84d09H
	DQ	54186f653140a659H
	DQ	00000000b424dc35H
	DQ	7738164770402145H
	DQ	0000000024075f3dH
	DQ	e4a4d1417cd9a041H
	DQ	000000000734aca5H
	DQ	c75429d9e5c5200dH
	DQ	000000000170ef54H
	DQ	c1773b91fac10669H
	DQ	000000000049c977H
	DQ	26b172506559ce15H
	DQ	00000000000ec1e4H
	DQ	d489e3a9addec2d1H
	DQ	000000000002f394H
	DQ	90e860bb892c8d5dH
	DQ	000000000000971dH
	DQ	502e79bf1b6f4f79H
	DQ	0000000000001e39H
	DQ	dcd618596be30fe5H
	DQ	000000000000060bH
CONST	ENDS
;	COMDAT ?divtest_table_for_pow5_32@?$basic_data@X@detail@v7@fmt@@2QBU?$divtest_table_entry@I@234@B
CONST	SEGMENT
?divtest_table_for_pow5_32@?$basic_data@X@detail@v7@fmt@@2QBU?$divtest_table_entry@I@234@B DD 01H ; fmt::v7::detail::basic_data<void>::divtest_table_for_pow5_32
	DD	0ffffffffH
	DD	0cccccccdH
	DD	033333333H
	DD	0c28f5c29H
	DD	0a3d70a3H
	DD	026e978d5H
	DD	020c49baH
	DD	03afb7e91H
	DD	068db8bH
	DD	0bcbe61dH
	DD	014f8b5H
	DD	068c26139H
	DD	0431bdH
	DD	0ae8d46a5H
	DD	0d6bfH
	DD	022e90e21H
	DD	02af3H
	DD	03a2e9c6dH
	DD	0897H
	DD	03ed61f49H
	DD	01b7H
CONST	ENDS
;	COMDAT ?grisu_pow10_exponents@?$basic_data@X@detail@v7@fmt@@2QBFB
CONST	SEGMENT
?grisu_pow10_exponents@?$basic_data@X@detail@v7@fmt@@2QBFB DW 0fb3cH ; fmt::v7::detail::basic_data<void>::grisu_pow10_exponents
	DW	0fb57H
	DW	0fb72H
	DW	0fb8cH
	DW	0fba7H
	DW	0fbc1H
	DW	0fbdcH
	DW	0fbf6H
	DW	0fc11H
	DW	0fc2cH
	DW	0fc46H
	DW	0fc61H
	DW	0fc7bH
	DW	0fc96H
	DW	0fcb1H
	DW	0fccbH
	DW	0fce6H
	DW	0fd00H
	DW	0fd1bH
	DW	0fd35H
	DW	0fd50H
	DW	0fd6bH
	DW	0fd85H
	DW	0fda0H
	DW	0fdbaH
	DW	0fdd5H
	DW	0fdefH
	DW	0fe0aH
	DW	0fe25H
	DW	0fe3fH
	DW	0fe5aH
	DW	0fe74H
	DW	0fe8fH
	DW	0fea9H
	DW	0fec4H
	DW	0fedfH
	DW	0fef9H
	DW	0ff14H
	DW	0ff2eH
	DW	0ff49H
	DW	0ff63H
	DW	0ff7eH
	DW	0ff99H
	DW	0ffb3H
	DW	0ffceH
	DW	0ffe8H
	DW	03H
	DW	01eH
	DW	038H
	DW	053H
	DW	06dH
	DW	088H
	DW	0a2H
	DW	0bdH
	DW	0d8H
	DW	0f2H
	DW	010dH
	DW	0127H
	DW	0142H
	DW	015cH
	DW	0177H
	DW	0192H
	DW	01acH
	DW	01c7H
	DW	01e1H
	DW	01fcH
	DW	0216H
	DW	0231H
	DW	024cH
	DW	0266H
	DW	0281H
	DW	029bH
	DW	02b6H
	DW	02d0H
	DW	02ebH
	DW	0306H
	DW	0320H
	DW	033bH
	DW	0355H
	DW	0370H
	DW	038bH
	DW	03a5H
	DW	03c0H
	DW	03daH
	DW	03f5H
	DW	040fH
	DW	042aH
CONST	ENDS
;	COMDAT ?grisu_pow10_significands@?$basic_data@X@detail@v7@fmt@@2QB_KB
CONST	SEGMENT
?grisu_pow10_significands@?$basic_data@X@detail@v7@fmt@@2QB_KB DQ fa8fd5a0081c0288H ; fmt::v7::detail::basic_data<void>::grisu_pow10_significands
	DQ	baaee17fa23ebf76H
	DQ	8b16fb203055ac76H
	DQ	cf42894a5dce35eaH
	DQ	9a6bb0aa55653b2dH
	DQ	e61acf033d1a45dfH
	DQ	ab70fe17c79ac6caH
	DQ	ff77b1fcbebcdc4fH
	DQ	be5691ef416bd60cH
	DQ	8dd01fad907ffc3cH
	DQ	d3515c2831559a83H
	DQ	9d71ac8fada6c9b5H
	DQ	ea9c227723ee8bcbH
	DQ	aecc49914078536dH
	DQ	823c12795db6ce57H
	DQ	c21094364dfb5637H
	DQ	9096ea6f3848984fH
	DQ	d77485cb25823ac7H
	DQ	a086cfcd97bf97f4H
	DQ	ef340a98172aace5H
	DQ	b23867fb2a35b28eH
	DQ	84c8d4dfd2c63f3bH
	DQ	c5dd44271ad3cdbaH
	DQ	936b9fcebb25c996H
	DQ	dbac6c247d62a584H
	DQ	a3ab66580d5fdaf6H
	DQ	f3e2f893dec3f126H
	DQ	b5b5ada8aaff80b8H
	DQ	87625f056c7c4a8bH
	DQ	c9bcff6034c13053H
	DQ	964e858c91ba2655H
	DQ	dff9772470297ebdH
	DQ	a6dfbd9fb8e5b88fH
	DQ	f8a95fcf88747d94H
	DQ	b94470938fa89bcfH
	DQ	8a08f0f8bf0f156bH
	DQ	cdb02555653131b6H
	DQ	993fe2c6d07b7facH
	DQ	e45c10c42a2b3b06H
	DQ	aa242499697392d3H
	DQ	fd87b5f28300ca0eH
	DQ	bce5086492111aebH
	DQ	8cbccc096f5088ccH
	DQ	d1b71758e219652cH
	DQ	9c40000000000000H
	DQ	e8d4a51000000000H
	DQ	ad78ebc5ac620000H
	DQ	813f3978f8940984H
	DQ	c097ce7bc90715b3H
	DQ	8f7e32ce7bea5c70H
	DQ	d5d238a4abe98068H
	DQ	9f4f2726179a2245H
	DQ	ed63a231d4c4fb27H
	DQ	b0de65388cc8ada8H
	DQ	83c7088e1aab65dbH
	DQ	c45d1df942711d9aH
	DQ	924d692ca61be758H
	DQ	da01ee641a708deaH
	DQ	a26da3999aef774aH
	DQ	f209787bb47d6b85H
	DQ	b454e4a179dd1877H
	DQ	865b86925b9bc5c2H
	DQ	c83553c5c8965d3dH
	DQ	952ab45cfa97a0b3H
	DQ	de469fbd99a05fe3H
	DQ	a59bc234db398c25H
	DQ	f6c69a72a3989f5cH
	DQ	b7dcbf5354e9beceH
	DQ	88fcf317f22241e2H
	DQ	cc20ce9bd35c78a5H
	DQ	98165af37b2153dfH
	DQ	e2a0b5dc971f303aH
	DQ	a8d9d1535ce3b396H
	DQ	fb9b7cd9a4a7443cH
	DQ	bb764c4ca7a44410H
	DQ	8bab8eefb6409c1aH
	DQ	d01fef10a657842cH
	DQ	9b10a4e5e9913129H
	DQ	e7109bfba19c0c9dH
	DQ	ac2820d9623bf429H
	DQ	80444b5e7aa7cf85H
	DQ	bf21e44003acdd2dH
	DQ	8e679c2f5e44ff8fH
	DQ	d433179d9c8cb841H
	DQ	9e19db92b4e31ba9H
	DQ	eb96bf6ebadf77d9H
	DQ	af87023b9bf0ee6bH
CONST	ENDS
;	COMDAT ?zero_or_powers_of_10_64_new@?$basic_data@X@detail@v7@fmt@@2QB_KB
CONST	SEGMENT
?zero_or_powers_of_10_64_new@?$basic_data@X@detail@v7@fmt@@2QB_KB DQ 0000000000000000H ; fmt::v7::detail::basic_data<void>::zero_or_powers_of_10_64_new
	DQ	0000000000000000H
	DQ	000000000000000aH
	DQ	0000000000000064H
	DQ	00000000000003e8H
	DQ	0000000000002710H
	DQ	00000000000186a0H
	DQ	00000000000f4240H
	DQ	0000000000989680H
	DQ	0000000005f5e100H
	DQ	000000003b9aca00H
	DQ	00000002540be400H
	DQ	000000174876e800H
	DQ	000000e8d4a51000H
	DQ	000009184e72a000H
	DQ	00005af3107a4000H
	DQ	00038d7ea4c68000H
	DQ	002386f26fc10000H
	DQ	016345785d8a0000H
	DQ	0de0b6b3a7640000H
	DQ	8ac7230489e80000H
CONST	ENDS
;	COMDAT ?zero_or_powers_of_10_32_new@?$basic_data@X@detail@v7@fmt@@2QBIB
CONST	SEGMENT
?zero_or_powers_of_10_32_new@?$basic_data@X@detail@v7@fmt@@2QBIB DD 00H ; fmt::v7::detail::basic_data<void>::zero_or_powers_of_10_32_new
	DD	00H
	DD	0aH
	DD	064H
	DD	03e8H
	DD	02710H
	DD	0186a0H
	DD	0f4240H
	DD	0989680H
	DD	05f5e100H
	DD	03b9aca00H
CONST	ENDS
;	COMDAT ?powers_of_10_64@?$basic_data@X@detail@v7@fmt@@2QB_KB
CONST	SEGMENT
?powers_of_10_64@?$basic_data@X@detail@v7@fmt@@2QB_KB DQ 0000000000000001H ; fmt::v7::detail::basic_data<void>::powers_of_10_64
	DQ	000000000000000aH
	DQ	0000000000000064H
	DQ	00000000000003e8H
	DQ	0000000000002710H
	DQ	00000000000186a0H
	DQ	00000000000f4240H
	DQ	0000000000989680H
	DQ	0000000005f5e100H
	DQ	000000003b9aca00H
	DQ	00000002540be400H
	DQ	000000174876e800H
	DQ	000000e8d4a51000H
	DQ	000009184e72a000H
	DQ	00005af3107a4000H
	DQ	00038d7ea4c68000H
	DQ	002386f26fc10000H
	DQ	016345785d8a0000H
	DQ	0de0b6b3a7640000H
	DQ	8ac7230489e80000H
CONST	ENDS
;	COMDAT ??_C@_01GFHCPBMG@C@
CONST	SEGMENT
??_C@_01GFHCPBMG@C@ DB 'C', 00H				; `string'
CONST	ENDS
PUBLIC	??_H@YAXPEAX_K1P6APEAX0@Z@Z			; `vector constructor iterator'
PUBLIC	?__empty_global_delete@@YAXPEAX@Z		; __empty_global_delete
PUBLIC	?__empty_global_delete@@YAXPEAX_K@Z		; __empty_global_delete
PUBLIC	?__empty_global_delete@@YAXPEAXW4align_val_t@std@@@Z ; __empty_global_delete
PUBLIC	?__empty_global_delete@@YAXPEAX_KW4align_val_t@std@@@Z ; __empty_global_delete
PUBLIC	??2@YAPEAX_KPEAX@Z				; operator new
PUBLIC	??0exception@std@@QEAA@QEBDH@Z			; std::exception::exception
PUBLIC	??0exception@std@@QEAA@AEBV01@@Z		; std::exception::exception
PUBLIC	??1exception@std@@UEAA@XZ			; std::exception::~exception
PUBLIC	?what@exception@std@@UEBAPEBDXZ			; std::exception::what
PUBLIC	??_Gexception@std@@UEAAPEAXI@Z			; std::exception::`scalar deleting destructor'
PUBLIC	??0bad_alloc@std@@AEAA@QEBD@Z			; std::bad_alloc::bad_alloc
PUBLIC	??1bad_alloc@std@@UEAA@XZ			; std::bad_alloc::~bad_alloc
PUBLIC	??0bad_alloc@std@@QEAA@AEBV01@@Z		; std::bad_alloc::bad_alloc
PUBLIC	??_Gbad_alloc@std@@UEAAPEAXI@Z			; std::bad_alloc::`scalar deleting destructor'
PUBLIC	??0bad_array_new_length@std@@QEAA@XZ		; std::bad_array_new_length::bad_array_new_length
PUBLIC	??1bad_array_new_length@std@@UEAA@XZ		; std::bad_array_new_length::~bad_array_new_length
PUBLIC	??0bad_array_new_length@std@@QEAA@AEBV01@@Z	; std::bad_array_new_length::bad_array_new_length
PUBLIC	??_Gbad_array_new_length@std@@UEAAPEAXI@Z	; std::bad_array_new_length::`scalar deleting destructor'
PUBLIC	?_Throw_bad_array_new_length@std@@YAXXZ		; std::_Throw_bad_array_new_length
PUBLIC	wmemcpy
PUBLIC	?max@?$numeric_limits@_J@std@@SA_JXZ		; std::numeric_limits<__int64>::max
PUBLIC	?_Allocate@_Default_allocate_traits@std@@SAPEAX_K@Z ; std::_Default_allocate_traits::_Allocate
PUBLIC	?_Adjust_manually_vector_aligned@std@@YAXAEAPEAXAEA_K@Z ; std::_Adjust_manually_vector_aligned
PUBLIC	??0_Container_proxy@std@@QEAA@PEAU_Container_base12@1@@Z ; std::_Container_proxy::_Container_proxy
PUBLIC	??0_Container_base12@std@@QEAA@XZ		; std::_Container_base12::_Container_base12
PUBLIC	?_Orphan_all@_Container_base12@std@@QEAAXXZ	; std::_Container_base12::_Orphan_all
PUBLIC	?length@?$_Narrow_char_traits@DH@std@@SA_KQEBD@Z ; std::_Narrow_char_traits<char,int>::length
PUBLIC	??$_Maklocstr@_W@std@@YAPEA_WPEBDPEA_WAEBU_Cvtvec@@@Z ; std::_Maklocstr<wchar_t>
PUBLIC	?_Maklocwcs@std@@YAPEA_WPEB_W@Z			; std::_Maklocwcs
PUBLIC	??0?$basic_string_view@D@v7@fmt@@QEAA@PEBD@Z	; fmt::v7::basic_string_view<char>::basic_string_view<char>
PUBLIC	??0uint128_wrapper@detail@v7@fmt@@QEAA@_K0@Z	; fmt::v7::detail::uint128_wrapper::uint128_wrapper
PUBLIC	??$_Getvals@_W@?$time_get@DV?$istreambuf_iterator@DU?$char_traits@D@std@@@std@@@std@@IEAAX_WAEBV_Locinfo@1@@Z ; std::time_get<char,std::istreambuf_iterator<char,std::char_traits<char> > >::_Getvals<wchar_t>
PUBLIC	??$_Getvals@_W@?$time_get@_WV?$istreambuf_iterator@_WU?$char_traits@_W@std@@@std@@@std@@IEAAX_WAEBV_Locinfo@1@@Z ; std::time_get<wchar_t,std::istreambuf_iterator<wchar_t,std::char_traits<wchar_t> > >::_Getvals<wchar_t>
PUBLIC	??$min@_K@std@@YAAEB_KAEB_K0@Z			; std::min<unsigned __int64>
PUBLIC	?next@type_index@internal@entt@@SAIXZ		; entt::internal::type_index::next
PUBLIC	?to_integral@entt@@YA@W4entity@1@@Z		; entt::to_integral
PUBLIC	?valid@?$basic_registry@W4entity@entt@@@entt@@QEBA_NW4entity@2@@Z ; entt::basic_registry<enum entt::entity>::valid
PUBLIC	?deallocate@?$allocator@Upool_data@?$basic_registry@W4entity@entt@@@entt@@@std@@QEAAXQEAUpool_data@?$basic_registry@W4entity@entt@@@entt@@_K@Z ; std::allocator<entt::basic_registry<enum entt::entity>::pool_data>::deallocate
PUBLIC	?allocate@?$allocator@Upool_data@?$basic_registry@W4entity@entt@@@entt@@@std@@QEAAPEAUpool_data@?$basic_registry@W4entity@entt@@@entt@@_K@Z ; std::allocator<entt::basic_registry<enum entt::entity>::pool_data>::allocate
PUBLIC	?max_size@?$_Default_allocator_traits@V?$allocator@Upool_data@?$basic_registry@W4entity@entt@@@entt@@@std@@@std@@SA_KAEBV?$allocator@Upool_data@?$basic_registry@W4entity@entt@@@entt@@@2@@Z ; std::_Default_allocator_traits<std::allocator<entt::basic_registry<enum entt::entity>::pool_data> >::max_size
PUBLIC	?resize@?$vector@Upool_data@?$basic_registry@W4entity@entt@@@entt@@V?$allocator@Upool_data@?$basic_registry@W4entity@entt@@@entt@@@std@@@std@@QEAAX_K@Z ; std::vector<entt::basic_registry<enum entt::entity>::pool_data,std::allocator<entt::basic_registry<enum entt::entity>::pool_data> >::resize
PUBLIC	?size@?$vector@Upool_data@?$basic_registry@W4entity@entt@@@entt@@V?$allocator@Upool_data@?$basic_registry@W4entity@entt@@@entt@@@std@@@std@@QEBA_KXZ ; std::vector<entt::basic_registry<enum entt::entity>::pool_data,std::allocator<entt::basic_registry<enum entt::entity>::pool_data> >::size
PUBLIC	?max_size@?$vector@Upool_data@?$basic_registry@W4entity@entt@@@entt@@V?$allocator@Upool_data@?$basic_registry@W4entity@entt@@@entt@@@std@@@std@@QEBA_KXZ ; std::vector<entt::basic_registry<enum entt::entity>::pool_data,std::allocator<entt::basic_registry<enum entt::entity>::pool_data> >::max_size
PUBLIC	?capacity@?$vector@Upool_data@?$basic_registry@W4entity@entt@@@entt@@V?$allocator@Upool_data@?$basic_registry@W4entity@entt@@@entt@@@std@@@std@@QEBA_KXZ ; std::vector<entt::basic_registry<enum entt::entity>::pool_data,std::allocator<entt::basic_registry<enum entt::entity>::pool_data> >::capacity
PUBLIC	??A?$vector@Upool_data@?$basic_registry@W4entity@entt@@@entt@@V?$allocator@Upool_data@?$basic_registry@W4entity@entt@@@entt@@@std@@@std@@QEAAAEAUpool_data@?$basic_registry@W4entity@entt@@@entt@@_K@Z ; std::vector<entt::basic_registry<enum entt::entity>::pool_data,std::allocator<entt::basic_registry<enum entt::entity>::pool_data> >::operator[]
PUBLIC	?_Ufill@?$vector@Upool_data@?$basic_registry@W4entity@entt@@@entt@@V?$allocator@Upool_data@?$basic_registry@W4entity@entt@@@entt@@@std@@@std@@AEAAPEAUpool_data@?$basic_registry@W4entity@entt@@@entt@@PEAU345@_KU_Value_init_tag@2@@Z ; std::vector<entt::basic_registry<enum entt::entity>::pool_data,std::allocator<entt::basic_registry<enum entt::entity>::pool_data> >::_Ufill
PUBLIC	?_Umove_if_noexcept1@?$vector@Upool_data@?$basic_registry@W4entity@entt@@@entt@@V?$allocator@Upool_data@?$basic_registry@W4entity@entt@@@entt@@@std@@@std@@AEAAXPEAUpool_data@?$basic_registry@W4entity@entt@@@entt@@00U?$integral_constant@_N$00@2@@Z ; std::vector<entt::basic_registry<enum entt::entity>::pool_data,std::allocator<entt::basic_registry<enum entt::entity>::pool_data> >::_Umove_if_noexcept1
PUBLIC	?_Umove_if_noexcept@?$vector@Upool_data@?$basic_registry@W4entity@entt@@@entt@@V?$allocator@Upool_data@?$basic_registry@W4entity@entt@@@entt@@@std@@@std@@AEAAXPEAUpool_data@?$basic_registry@W4entity@entt@@@entt@@00@Z ; std::vector<entt::basic_registry<enum entt::entity>::pool_data,std::allocator<entt::basic_registry<enum entt::entity>::pool_data> >::_Umove_if_noexcept
PUBLIC	?_Destroy@?$vector@Upool_data@?$basic_registry@W4entity@entt@@@entt@@V?$allocator@Upool_data@?$basic_registry@W4entity@entt@@@entt@@@std@@@std@@AEAAXPEAUpool_data@?$basic_registry@W4entity@entt@@@entt@@0@Z ; std::vector<entt::basic_registry<enum entt::entity>::pool_data,std::allocator<entt::basic_registry<enum entt::entity>::pool_data> >::_Destroy
PUBLIC	?_Calculate_growth@?$vector@Upool_data@?$basic_registry@W4entity@entt@@@entt@@V?$allocator@Upool_data@?$basic_registry@W4entity@entt@@@entt@@@std@@@std@@AEBA_K_K@Z ; std::vector<entt::basic_registry<enum entt::entity>::pool_data,std::allocator<entt::basic_registry<enum entt::entity>::pool_data> >::_Calculate_growth
PUBLIC	?_Change_array@?$vector@Upool_data@?$basic_registry@W4entity@entt@@@entt@@V?$allocator@Upool_data@?$basic_registry@W4entity@entt@@@entt@@@std@@@std@@AEAAXQEAUpool_data@?$basic_registry@W4entity@entt@@@entt@@_K1@Z ; std::vector<entt::basic_registry<enum entt::entity>::pool_data,std::allocator<entt::basic_registry<enum entt::entity>::pool_data> >::_Change_array
PUBLIC	?_Xlength@?$vector@Upool_data@?$basic_registry@W4entity@entt@@@entt@@V?$allocator@Upool_data@?$basic_registry@W4entity@entt@@@entt@@@std@@@std@@CAXXZ ; std::vector<entt::basic_registry<enum entt::entity>::pool_data,std::allocator<entt::basic_registry<enum entt::entity>::pool_data> >::_Xlength
PUBLIC	?_Orphan_range@?$vector@Upool_data@?$basic_registry@W4entity@entt@@@entt@@V?$allocator@Upool_data@?$basic_registry@W4entity@entt@@@entt@@@std@@@std@@AEBAXPEAUpool_data@?$basic_registry@W4entity@entt@@@entt@@0@Z ; std::vector<entt::basic_registry<enum entt::entity>::pool_data,std::allocator<entt::basic_registry<enum entt::entity>::pool_data> >::_Orphan_range
PUBLIC	?_Getal@?$vector@Upool_data@?$basic_registry@W4entity@entt@@@entt@@V?$allocator@Upool_data@?$basic_registry@W4entity@entt@@@entt@@@std@@@std@@AEAAAEAV?$allocator@Upool_data@?$basic_registry@W4entity@entt@@@entt@@@2@XZ ; std::vector<entt::basic_registry<enum entt::entity>::pool_data,std::allocator<entt::basic_registry<enum entt::entity>::pool_data> >::_Getal
PUBLIC	?_Getal@?$vector@Upool_data@?$basic_registry@W4entity@entt@@@entt@@V?$allocator@Upool_data@?$basic_registry@W4entity@entt@@@entt@@@std@@@std@@AEBAAEBV?$allocator@Upool_data@?$basic_registry@W4entity@entt@@@entt@@@2@XZ ; std::vector<entt::basic_registry<enum entt::entity>::pool_data,std::allocator<entt::basic_registry<enum entt::entity>::pool_data> >::_Getal
PUBLIC	?_Get_first@?$_Compressed_pair@V?$allocator@Upool_data@?$basic_registry@W4entity@entt@@@entt@@@std@@V?$_Vector_val@U?$_Simple_types@Upool_data@?$basic_registry@W4entity@entt@@@entt@@@std@@@2@$00@std@@QEAAAEAV?$allocator@Upool_data@?$basic_registry@W4entity@entt@@@entt@@@2@XZ ; std::_Compressed_pair<std::allocator<entt::basic_registry<enum entt::entity>::pool_data>,std::_Vector_val<std::_Simple_types<entt::basic_registry<enum entt::entity>::pool_data> >,1>::_Get_first
PUBLIC	?_Get_first@?$_Compressed_pair@V?$allocator@Upool_data@?$basic_registry@W4entity@entt@@@entt@@@std@@V?$_Vector_val@U?$_Simple_types@Upool_data@?$basic_registry@W4entity@entt@@@entt@@@std@@@2@$00@std@@QEBAAEBV?$allocator@Upool_data@?$basic_registry@W4entity@entt@@@entt@@@2@XZ ; std::_Compressed_pair<std::allocator<entt::basic_registry<enum entt::entity>::pool_data>,std::_Vector_val<std::_Simple_types<entt::basic_registry<enum entt::entity>::pool_data> >,1>::_Get_first
PUBLIC	??0?$allocator@W4entity@entt@@@std@@QEAA@XZ	; std::allocator<enum entt::entity>::allocator<enum entt::entity>
PUBLIC	?deallocate@?$allocator@W4entity@entt@@@std@@QEAAXQEAW4entity@entt@@_K@Z ; std::allocator<enum entt::entity>::deallocate
PUBLIC	??0?$vector@W4entity@entt@@V?$allocator@W4entity@entt@@@std@@@std@@QEAA@XZ ; std::vector<enum entt::entity,std::allocator<enum entt::entity> >::vector<enum entt::entity,std::allocator<enum entt::entity> >
PUBLIC	??1?$vector@W4entity@entt@@V?$allocator@W4entity@entt@@@std@@@std@@QEAA@XZ ; std::vector<enum entt::entity,std::allocator<enum entt::entity> >::~vector<enum entt::entity,std::allocator<enum entt::entity> >
PUBLIC	?pop_back@?$vector@W4entity@entt@@V?$allocator@W4entity@entt@@@std@@@std@@QEAAXXZ ; std::vector<enum entt::entity,std::allocator<enum entt::entity> >::pop_back
PUBLIC	?size@?$vector@W4entity@entt@@V?$allocator@W4entity@entt@@@std@@@std@@QEBA_KXZ ; std::vector<enum entt::entity,std::allocator<enum entt::entity> >::size
PUBLIC	??A?$vector@W4entity@entt@@V?$allocator@W4entity@entt@@@std@@@std@@QEAAAEAW4entity@entt@@_K@Z ; std::vector<enum entt::entity,std::allocator<enum entt::entity> >::operator[]
PUBLIC	??A?$vector@W4entity@entt@@V?$allocator@W4entity@entt@@@std@@@std@@QEBAAEBW4entity@entt@@_K@Z ; std::vector<enum entt::entity,std::allocator<enum entt::entity> >::operator[]
PUBLIC	?back@?$vector@W4entity@entt@@V?$allocator@W4entity@entt@@@std@@@std@@QEAAAEAW4entity@entt@@XZ ; std::vector<enum entt::entity,std::allocator<enum entt::entity> >::back
PUBLIC	?_Destroy@?$vector@W4entity@entt@@V?$allocator@W4entity@entt@@@std@@@std@@AEAAXPEAW4entity@entt@@0@Z ; std::vector<enum entt::entity,std::allocator<enum entt::entity> >::_Destroy
PUBLIC	?_Tidy@?$vector@W4entity@entt@@V?$allocator@W4entity@entt@@@std@@@std@@AEAAXXZ ; std::vector<enum entt::entity,std::allocator<enum entt::entity> >::_Tidy
PUBLIC	?_Orphan_range@?$vector@W4entity@entt@@V?$allocator@W4entity@entt@@@std@@@std@@AEBAXPEAW4entity@entt@@0@Z ; std::vector<enum entt::entity,std::allocator<enum entt::entity> >::_Orphan_range
PUBLIC	?_Getal@?$vector@W4entity@entt@@V?$allocator@W4entity@entt@@@std@@@std@@AEAAAEAV?$allocator@W4entity@entt@@@2@XZ ; std::vector<enum entt::entity,std::allocator<enum entt::entity> >::_Getal
PUBLIC	??0?$_Vector_val@U?$_Simple_types@W4entity@entt@@@std@@@std@@QEAA@XZ ; std::_Vector_val<std::_Simple_types<enum entt::entity> >::_Vector_val<std::_Simple_types<enum entt::entity> >
PUBLIC	?_Get_first@?$_Compressed_pair@V?$allocator@W4entity@entt@@@std@@V?$_Vector_val@U?$_Simple_types@W4entity@entt@@@std@@@2@$00@std@@QEAAAEAV?$allocator@W4entity@entt@@@2@XZ ; std::_Compressed_pair<std::allocator<enum entt::entity>,std::_Vector_val<std::_Simple_types<enum entt::entity> >,1>::_Get_first
PUBLIC	??0Entity@Immortal@@QEAA@XZ			; Immortal::Entity::Entity
PUBLIC	??1Entity@Immortal@@QEAA@XZ			; Immortal::Entity::~Entity
PUBLIC	??$?BW4entity@entt@@@null@internal@entt@@QEBA?AW4entity@2@XZ ; entt::internal::null::operator<enum entt::entity> enum entt::entity
PUBLIC	??$GetComponent@UTransformComponent@Immortal@@@Entity@Immortal@@QEBAAEAUTransformComponent@1@XZ ; Immortal::Entity::GetComponent<Immortal::TransformComponent>
PUBLIC	??1ScriptableObject@Immortal@@UEAA@XZ		; Immortal::ScriptableObject::~ScriptableObject
PUBLIC	?OnStart@ScriptableObject@Immortal@@MEAAXXZ	; Immortal::ScriptableObject::OnStart
PUBLIC	?OnDestroy@ScriptableObject@Immortal@@MEAAXXZ	; Immortal::ScriptableObject::OnDestroy
PUBLIC	?OnUpdate@ScriptableObject@Immortal@@MEAAXXZ	; Immortal::ScriptableObject::OnUpdate
PUBLIC	??0ScriptableObject@Immortal@@QEAA@XZ		; Immortal::ScriptableObject::ScriptableObject
PUBLIC	??0ScriptableObject@Immortal@@QEAA@AEBV01@@Z	; Immortal::ScriptableObject::ScriptableObject
PUBLIC	??4ScriptableObject@Immortal@@QEAAAEAV01@AEBV01@@Z ; Immortal::ScriptableObject::operator=
PUBLIC	??_GScriptableObject@Immortal@@UEAAPEAXI@Z	; Immortal::ScriptableObject::`scalar deleting destructor'
PUBLIC	??_EScriptableObject@Immortal@@UEAAPEAXI@Z	; Immortal::ScriptableObject::`vector deleting destructor'
PUBLIC	?DeltaTime@Timestep@Immortal@@QEBAMXZ		; Immortal::Timestep::DeltaTime
PUBLIC	?IsKeyPressed@Application@Immortal@@SA_NW4KeyCode@2@@Z ; Immortal::Application::IsKeyPressed
PUBLIC	?DeltaTime@Application@Immortal@@SAMXZ		; Immortal::Application::DeltaTime
PUBLIC	?OnStart@CubeController@Immortal@@UEAAXXZ	; Immortal::CubeController::OnStart
PUBLIC	?OnDestroy@CubeController@Immortal@@UEAAXXZ	; Immortal::CubeController::OnDestroy
PUBLIC	?OnUpdate@CubeController@Immortal@@UEAAXXZ	; Immortal::CubeController::OnUpdate
PUBLIC	??0CubeController@Immortal@@QEAA@XZ		; Immortal::CubeController::CubeController
PUBLIC	??1CubeController@Immortal@@UEAA@XZ		; Immortal::CubeController::~CubeController
PUBLIC	??_GCubeController@Immortal@@UEAAPEAXI@Z	; Immortal::CubeController::`scalar deleting destructor'
PUBLIC	??$GetComponent@UTransformComponent@Immortal@@@ScriptableObject@Immortal@@QEAAAEAUTransformComponent@1@XZ ; Immortal::ScriptableObject::GetComponent<Immortal::TransformComponent>
PUBLIC	GetCubeController
PUBLIC	GetApplication
PUBLIC	?allocate@?$allocator@U_Container_proxy@std@@@std@@QEAAPEAU_Container_proxy@2@_K@Z ; std::allocator<std::_Container_proxy>::allocate
PUBLIC	??$exchange@PEAU_Container_proxy@std@@$$T@std@@YAPEAU_Container_proxy@0@AEAPEAU10@$$QEA$$T@Z ; std::exchange<std::_Container_proxy *,std::nullptr_t>
PUBLIC	??$_Delete_plain_internal@V?$allocator@U_Container_proxy@std@@@std@@@std@@YAXAEAV?$allocator@U_Container_proxy@std@@@0@QEAU_Container_proxy@0@@Z ; std::_Delete_plain_internal<std::allocator<std::_Container_proxy> >
PUBLIC	??$_Alloc_proxy@V?$allocator@U_Container_proxy@std@@@std@@@_Container_base12@std@@QEAAX$$QEAV?$allocator@U_Container_proxy@std@@@1@@Z ; std::_Container_base12::_Alloc_proxy<std::allocator<std::_Container_proxy> >
PUBLIC	??$_Unfancy@U_Container_proxy@std@@@std@@YAPEAU_Container_proxy@0@PEAU10@@Z ; std::_Unfancy<std::_Container_proxy>
PUBLIC	??$_Construct_in_place@U_Container_proxy@std@@PEAU_Container_base12@2@@std@@YAXAEAU_Container_proxy@0@$$QEAPEAU_Container_base12@0@@Z ; std::_Construct_in_place<std::_Container_proxy,std::_Container_base12 *>
PUBLIC	??$_Get_size_of_n@$0BA@@std@@YA_K_K@Z		; std::_Get_size_of_n<16>
PUBLIC	??$_Allocate@$0BA@U_Default_allocate_traits@std@@$0A@@std@@YAPEAX_K@Z ; std::_Allocate<16,std::_Default_allocate_traits,0>
PUBLIC	??$_Deallocate@$0BA@$0A@@std@@YAXPEAX_K@Z	; std::_Deallocate<16,0>
PUBLIC	??$_Maklocstr@D@std@@YAPEADPEBDPEADAEBU_Cvtvec@@@Z ; std::_Maklocstr<char>
PUBLIC	??$get@UTransformComponent@Immortal@@@?$basic_registry@W4entity@entt@@@entt@@QEAA@W4entity@1@@Z ; entt::basic_registry<enum entt::entity>::get<Immortal::TransformComponent>
PUBLIC	??$assure@UTransformComponent@Immortal@@@?$basic_registry@W4entity@entt@@@entt@@AEAAAEAU?$pool_handler@UTransformComponent@Immortal@@@01@XZ ; entt::basic_registry<enum entt::entity>::assure<Immortal::TransformComponent>
PUBLIC	??$assure@UTransformComponent@Immortal@@@?$basic_registry@W4entity@entt@@@entt@@AEBAAEBU?$pool_handler@UTransformComponent@Immortal@@@01@XZ ; entt::basic_registry<enum entt::entity>::assure<Immortal::TransformComponent>
PUBLIC	?page@?$sparse_set@W4entity@entt@@@entt@@AEBA@W4entity@2@@Z ; entt::sparse_set<enum entt::entity>::page
PUBLIC	?offset@?$sparse_set@W4entity@entt@@@entt@@AEBA@W4entity@2@@Z ; entt::sparse_set<enum entt::entity>::offset
PUBLIC	??0?$sparse_set@W4entity@entt@@@entt@@QEAA@XZ	; entt::sparse_set<enum entt::entity>::sparse_set<enum entt::entity>
PUBLIC	??1?$sparse_set@W4entity@entt@@@entt@@UEAA@XZ	; entt::sparse_set<enum entt::entity>::~sparse_set<enum entt::entity>
PUBLIC	?contains@?$sparse_set@W4entity@entt@@@entt@@QEBA_NW4entity@2@@Z ; entt::sparse_set<enum entt::entity>::contains
PUBLIC	?index@?$sparse_set@W4entity@entt@@@entt@@QEBA_KW4entity@2@@Z ; entt::sparse_set<enum entt::entity>::index
PUBLIC	?erase@?$sparse_set@W4entity@entt@@@entt@@QEAAXW4entity@2@@Z ; entt::sparse_set<enum entt::entity>::erase
PUBLIC	?swap@?$sparse_set@W4entity@entt@@@entt@@UEAAXW4entity@2@0@Z ; entt::sparse_set<enum entt::entity>::swap
PUBLIC	??0?$allocator@V?$unique_ptr@$$BY0A@W4entity@entt@@U?$default_delete@$$BY0A@W4entity@entt@@@std@@@std@@@std@@QEAA@XZ ; std::allocator<std::unique_ptr<enum entt::entity [0],std::default_delete<enum entt::entity [0]> > >::allocator<std::unique_ptr<enum entt::entity [0],std::default_delete<enum entt::entity [0]> > >
PUBLIC	?deallocate@?$allocator@V?$unique_ptr@$$BY0A@W4entity@entt@@U?$default_delete@$$BY0A@W4entity@entt@@@std@@@std@@@std@@QEAAXQEAV?$unique_ptr@$$BY0A@W4entity@entt@@U?$default_delete@$$BY0A@W4entity@entt@@@std@@@2@_K@Z ; std::allocator<std::unique_ptr<enum entt::entity [0],std::default_delete<enum entt::entity [0]> > >::deallocate
PUBLIC	??0?$vector@V?$unique_ptr@$$BY0A@W4entity@entt@@U?$default_delete@$$BY0A@W4entity@entt@@@std@@@std@@V?$allocator@V?$unique_ptr@$$BY0A@W4entity@entt@@U?$default_delete@$$BY0A@W4entity@entt@@@std@@@std@@@2@@std@@QEAA@XZ ; std::vector<std::unique_ptr<enum entt::entity [0],std::default_delete<enum entt::entity [0]> >,std::allocator<std::unique_ptr<enum entt::entity [0],std::default_delete<enum entt::entity [0]> > > >::vector<std::unique_ptr<enum entt::entity [0],std::default_delete<enum entt::entity [0]> >,std::allocator<std::unique_ptr<enum entt::entity [0],std::default_delete<enum entt::entity [0]> > > >
PUBLIC	??1?$vector@V?$unique_ptr@$$BY0A@W4entity@entt@@U?$default_delete@$$BY0A@W4entity@entt@@@std@@@std@@V?$allocator@V?$unique_ptr@$$BY0A@W4entity@entt@@U?$default_delete@$$BY0A@W4entity@entt@@@std@@@std@@@2@@std@@QEAA@XZ ; std::vector<std::unique_ptr<enum entt::entity [0],std::default_delete<enum entt::entity [0]> >,std::allocator<std::unique_ptr<enum entt::entity [0],std::default_delete<enum entt::entity [0]> > > >::~vector<std::unique_ptr<enum entt::entity [0],std::default_delete<enum entt::entity [0]> >,std::allocator<std::unique_ptr<enum entt::entity [0],std::default_delete<enum entt::entity [0]> > > >
PUBLIC	?size@?$vector@V?$unique_ptr@$$BY0A@W4entity@entt@@U?$default_delete@$$BY0A@W4entity@entt@@@std@@@std@@V?$allocator@V?$unique_ptr@$$BY0A@W4entity@entt@@U?$default_delete@$$BY0A@W4entity@entt@@@std@@@std@@@2@@std@@QEBA_KXZ ; std::vector<std::unique_ptr<enum entt::entity [0],std::default_delete<enum entt::entity [0]> >,std::allocator<std::unique_ptr<enum entt::entity [0],std::default_delete<enum entt::entity [0]> > > >::size
PUBLIC	??A?$vector@V?$unique_ptr@$$BY0A@W4entity@entt@@U?$default_delete@$$BY0A@W4entity@entt@@@std@@@std@@V?$allocator@V?$unique_ptr@$$BY0A@W4entity@entt@@U?$default_delete@$$BY0A@W4entity@entt@@@std@@@std@@@2@@std@@QEAAAEAV?$unique_ptr@$$BY0A@W4entity@entt@@U?$default_delete@$$BY0A@W4entity@entt@@@std@@@1@_K@Z ; std::vector<std::unique_ptr<enum entt::entity [0],std::default_delete<enum entt::entity [0]> >,std::allocator<std::unique_ptr<enum entt::entity [0],std::default_delete<enum entt::entity [0]> > > >::operator[]
PUBLIC	??A?$vector@V?$unique_ptr@$$BY0A@W4entity@entt@@U?$default_delete@$$BY0A@W4entity@entt@@@std@@@std@@V?$allocator@V?$unique_ptr@$$BY0A@W4entity@entt@@U?$default_delete@$$BY0A@W4entity@entt@@@std@@@std@@@2@@std@@QEBAAEBV?$unique_ptr@$$BY0A@W4entity@entt@@U?$default_delete@$$BY0A@W4entity@entt@@@std@@@1@_K@Z ; std::vector<std::unique_ptr<enum entt::entity [0],std::default_delete<enum entt::entity [0]> >,std::allocator<std::unique_ptr<enum entt::entity [0],std::default_delete<enum entt::entity [0]> > > >::operator[]
PUBLIC	?_Destroy@?$vector@V?$unique_ptr@$$BY0A@W4entity@entt@@U?$default_delete@$$BY0A@W4entity@entt@@@std@@@std@@V?$allocator@V?$unique_ptr@$$BY0A@W4entity@entt@@U?$default_delete@$$BY0A@W4entity@entt@@@std@@@std@@@2@@std@@AEAAXPEAV?$unique_ptr@$$BY0A@W4entity@entt@@U?$default_delete@$$BY0A@W4entity@entt@@@std@@@2@0@Z ; std::vector<std::unique_ptr<enum entt::entity [0],std::default_delete<enum entt::entity [0]> >,std::allocator<std::unique_ptr<enum entt::entity [0],std::default_delete<enum entt::entity [0]> > > >::_Destroy
PUBLIC	?_Tidy@?$vector@V?$unique_ptr@$$BY0A@W4entity@entt@@U?$default_delete@$$BY0A@W4entity@entt@@@std@@@std@@V?$allocator@V?$unique_ptr@$$BY0A@W4entity@entt@@U?$default_delete@$$BY0A@W4entity@entt@@@std@@@std@@@2@@std@@AEAAXXZ ; std::vector<std::unique_ptr<enum entt::entity [0],std::default_delete<enum entt::entity [0]> >,std::allocator<std::unique_ptr<enum entt::entity [0],std::default_delete<enum entt::entity [0]> > > >::_Tidy
PUBLIC	?_Getal@?$vector@V?$unique_ptr@$$BY0A@W4entity@entt@@U?$default_delete@$$BY0A@W4entity@entt@@@std@@@std@@V?$allocator@V?$unique_ptr@$$BY0A@W4entity@entt@@U?$default_delete@$$BY0A@W4entity@entt@@@std@@@std@@@2@@std@@AEAAAEAV?$allocator@V?$unique_ptr@$$BY0A@W4entity@entt@@U?$default_delete@$$BY0A@W4entity@entt@@@std@@@std@@@2@XZ ; std::vector<std::unique_ptr<enum entt::entity [0],std::default_delete<enum entt::entity [0]> >,std::allocator<std::unique_ptr<enum entt::entity [0],std::default_delete<enum entt::entity [0]> > > >::_Getal
PUBLIC	??0?$_Vector_val@U?$_Simple_types@V?$unique_ptr@$$BY0A@W4entity@entt@@U?$default_delete@$$BY0A@W4entity@entt@@@std@@@std@@@std@@@std@@QEAA@XZ ; std::_Vector_val<std::_Simple_types<std::unique_ptr<enum entt::entity [0],std::default_delete<enum entt::entity [0]> > > >::_Vector_val<std::_Simple_types<std::unique_ptr<enum entt::entity [0],std::default_delete<enum entt::entity [0]> > > >
PUBLIC	?_Get_first@?$_Compressed_pair@V?$allocator@V?$unique_ptr@$$BY0A@W4entity@entt@@U?$default_delete@$$BY0A@W4entity@entt@@@std@@@std@@@std@@V?$_Vector_val@U?$_Simple_types@V?$unique_ptr@$$BY0A@W4entity@entt@@U?$default_delete@$$BY0A@W4entity@entt@@@std@@@std@@@std@@@2@$00@std@@QEAAAEAV?$allocator@V?$unique_ptr@$$BY0A@W4entity@entt@@U?$default_delete@$$BY0A@W4entity@entt@@@std@@@std@@@2@XZ ; std::_Compressed_pair<std::allocator<std::unique_ptr<enum entt::entity [0],std::default_delete<enum entt::entity [0]> > >,std::_Vector_val<std::_Simple_types<std::unique_ptr<enum entt::entity [0],std::default_delete<enum entt::entity [0]> > > >,1>::_Get_first
PUBLIC	??_G?$sparse_set@W4entity@entt@@@entt@@UEAAPEAXI@Z ; entt::sparse_set<enum entt::entity>::`scalar deleting destructor'
PUBLIC	?get@?$storage@W4entity@entt@@UTransformComponent@Immortal@@X@entt@@QEBAAEBUTransformComponent@Immortal@@W4entity@2@@Z ; entt::storage<enum entt::entity,Immortal::TransformComponent,void>::get
PUBLIC	?get@?$storage@W4entity@entt@@UTransformComponent@Immortal@@X@entt@@QEAAAEAUTransformComponent@Immortal@@W4entity@2@@Z ; entt::storage<enum entt::entity,Immortal::TransformComponent,void>::get
PUBLIC	?erase@?$storage@W4entity@entt@@UTransformComponent@Immortal@@X@entt@@QEAAXW4entity@2@@Z ; entt::storage<enum entt::entity,Immortal::TransformComponent,void>::erase
PUBLIC	?swap@?$storage@W4entity@entt@@UTransformComponent@Immortal@@X@entt@@UEAAXW4entity@2@0@Z ; entt::storage<enum entt::entity,Immortal::TransformComponent,void>::swap
PUBLIC	??0?$allocator@UTransformComponent@Immortal@@@std@@QEAA@XZ ; std::allocator<Immortal::TransformComponent>::allocator<Immortal::TransformComponent>
PUBLIC	?deallocate@?$allocator@UTransformComponent@Immortal@@@std@@QEAAXQEAUTransformComponent@Immortal@@_K@Z ; std::allocator<Immortal::TransformComponent>::deallocate
PUBLIC	??0?$vector@UTransformComponent@Immortal@@V?$allocator@UTransformComponent@Immortal@@@std@@@std@@QEAA@XZ ; std::vector<Immortal::TransformComponent,std::allocator<Immortal::TransformComponent> >::vector<Immortal::TransformComponent,std::allocator<Immortal::TransformComponent> >
PUBLIC	??1?$vector@UTransformComponent@Immortal@@V?$allocator@UTransformComponent@Immortal@@@std@@@std@@QEAA@XZ ; std::vector<Immortal::TransformComponent,std::allocator<Immortal::TransformComponent> >::~vector<Immortal::TransformComponent,std::allocator<Immortal::TransformComponent> >
PUBLIC	?pop_back@?$vector@UTransformComponent@Immortal@@V?$allocator@UTransformComponent@Immortal@@@std@@@std@@QEAAXXZ ; std::vector<Immortal::TransformComponent,std::allocator<Immortal::TransformComponent> >::pop_back
PUBLIC	??A?$vector@UTransformComponent@Immortal@@V?$allocator@UTransformComponent@Immortal@@@std@@@std@@QEAAAEAUTransformComponent@Immortal@@_K@Z ; std::vector<Immortal::TransformComponent,std::allocator<Immortal::TransformComponent> >::operator[]
PUBLIC	??A?$vector@UTransformComponent@Immortal@@V?$allocator@UTransformComponent@Immortal@@@std@@@std@@QEBAAEBUTransformComponent@Immortal@@_K@Z ; std::vector<Immortal::TransformComponent,std::allocator<Immortal::TransformComponent> >::operator[]
PUBLIC	?back@?$vector@UTransformComponent@Immortal@@V?$allocator@UTransformComponent@Immortal@@@std@@@std@@QEAAAEAUTransformComponent@Immortal@@XZ ; std::vector<Immortal::TransformComponent,std::allocator<Immortal::TransformComponent> >::back
PUBLIC	?_Destroy@?$vector@UTransformComponent@Immortal@@V?$allocator@UTransformComponent@Immortal@@@std@@@std@@AEAAXPEAUTransformComponent@Immortal@@0@Z ; std::vector<Immortal::TransformComponent,std::allocator<Immortal::TransformComponent> >::_Destroy
PUBLIC	?_Tidy@?$vector@UTransformComponent@Immortal@@V?$allocator@UTransformComponent@Immortal@@@std@@@std@@AEAAXXZ ; std::vector<Immortal::TransformComponent,std::allocator<Immortal::TransformComponent> >::_Tidy
PUBLIC	?_Orphan_range@?$vector@UTransformComponent@Immortal@@V?$allocator@UTransformComponent@Immortal@@@std@@@std@@AEBAXPEAUTransformComponent@Immortal@@0@Z ; std::vector<Immortal::TransformComponent,std::allocator<Immortal::TransformComponent> >::_Orphan_range
PUBLIC	?_Getal@?$vector@UTransformComponent@Immortal@@V?$allocator@UTransformComponent@Immortal@@@std@@@std@@AEAAAEAV?$allocator@UTransformComponent@Immortal@@@2@XZ ; std::vector<Immortal::TransformComponent,std::allocator<Immortal::TransformComponent> >::_Getal
PUBLIC	??0?$_Vector_val@U?$_Simple_types@UTransformComponent@Immortal@@@std@@@std@@QEAA@XZ ; std::_Vector_val<std::_Simple_types<Immortal::TransformComponent> >::_Vector_val<std::_Simple_types<Immortal::TransformComponent> >
PUBLIC	?_Get_first@?$_Compressed_pair@V?$allocator@UTransformComponent@Immortal@@@std@@V?$_Vector_val@U?$_Simple_types@UTransformComponent@Immortal@@@std@@@2@$00@std@@QEAAAEAV?$allocator@UTransformComponent@Immortal@@@2@XZ ; std::_Compressed_pair<std::allocator<Immortal::TransformComponent>,std::_Vector_val<std::_Simple_types<Immortal::TransformComponent> >,1>::_Get_first
PUBLIC	??0?$storage@W4entity@entt@@UTransformComponent@Immortal@@X@entt@@QEAA@XZ ; entt::storage<enum entt::entity,Immortal::TransformComponent,void>::storage<enum entt::entity,Immortal::TransformComponent,void>
PUBLIC	??1?$storage@W4entity@entt@@UTransformComponent@Immortal@@X@entt@@UEAA@XZ ; entt::storage<enum entt::entity,Immortal::TransformComponent,void>::~storage<enum entt::entity,Immortal::TransformComponent,void>
PUBLIC	??_G?$storage@W4entity@entt@@UTransformComponent@Immortal@@X@entt@@UEAAPEAXI@Z ; entt::storage<enum entt::entity,Immortal::TransformComponent,void>::`scalar deleting destructor'
PUBLIC	?remove@?$pool_handler@UTransformComponent@Immortal@@@?$basic_registry@W4entity@entt@@@entt@@QEAAXAEAV23@W4entity@3@@Z ; entt::basic_registry<enum entt::entity>::pool_handler<Immortal::TransformComponent>::remove
PUBLIC	?publish@?$sigh@$$A6AXAEAV?$basic_registry@W4entity@entt@@@entt@@W4entity@2@@Z@entt@@QEBAXAEAV?$basic_registry@W4entity@entt@@@2@W4entity@2@@Z ; entt::sigh<void __cdecl(entt::basic_registry<enum entt::entity> &,enum entt::entity)>::publish
PUBLIC	??0?$allocator@V?$delegate@$$A6AXAEAV?$basic_registry@W4entity@entt@@@entt@@W4entity@2@@Z@entt@@@std@@QEAA@XZ ; std::allocator<entt::delegate<void __cdecl(entt::basic_registry<enum entt::entity> &,enum entt::entity)> >::allocator<entt::delegate<void __cdecl(entt::basic_registry<enum entt::entity> &,enum entt::entity)> >
PUBLIC	?deallocate@?$allocator@V?$delegate@$$A6AXAEAV?$basic_registry@W4entity@entt@@@entt@@W4entity@2@@Z@entt@@@std@@QEAAXQEAV?$delegate@$$A6AXAEAV?$basic_registry@W4entity@entt@@@entt@@W4entity@2@@Z@entt@@_K@Z ; std::allocator<entt::delegate<void __cdecl(entt::basic_registry<enum entt::entity> &,enum entt::entity)> >::deallocate
PUBLIC	??0?$vector@V?$delegate@$$A6AXAEAV?$basic_registry@W4entity@entt@@@entt@@W4entity@2@@Z@entt@@V?$allocator@V?$delegate@$$A6AXAEAV?$basic_registry@W4entity@entt@@@entt@@W4entity@2@@Z@entt@@@std@@@std@@QEAA@XZ ; std::vector<entt::delegate<void __cdecl(entt::basic_registry<enum entt::entity> &,enum entt::entity)>,std::allocator<entt::delegate<void __cdecl(entt::basic_registry<enum entt::entity> &,enum entt::entity)> > >::vector<entt::delegate<void __cdecl(entt::basic_registry<enum entt::entity> &,enum entt::entity)>,std::allocator<entt::delegate<void __cdecl(entt::basic_registry<enum entt::entity> &,enum entt::entity)> > >
PUBLIC	??1?$vector@V?$delegate@$$A6AXAEAV?$basic_registry@W4entity@entt@@@entt@@W4entity@2@@Z@entt@@V?$allocator@V?$delegate@$$A6AXAEAV?$basic_registry@W4entity@entt@@@entt@@W4entity@2@@Z@entt@@@std@@@std@@QEAA@XZ ; std::vector<entt::delegate<void __cdecl(entt::basic_registry<enum entt::entity> &,enum entt::entity)>,std::allocator<entt::delegate<void __cdecl(entt::basic_registry<enum entt::entity> &,enum entt::entity)> > >::~vector<entt::delegate<void __cdecl(entt::basic_registry<enum entt::entity> &,enum entt::entity)>,std::allocator<entt::delegate<void __cdecl(entt::basic_registry<enum entt::entity> &,enum entt::entity)> > >
PUBLIC	?_Unchecked_begin@?$vector@V?$delegate@$$A6AXAEAV?$basic_registry@W4entity@entt@@@entt@@W4entity@2@@Z@entt@@V?$allocator@V?$delegate@$$A6AXAEAV?$basic_registry@W4entity@entt@@@entt@@W4entity@2@@Z@entt@@@std@@@std@@QEBAPEBV?$delegate@$$A6AXAEAV?$basic_registry@W4entity@entt@@@entt@@W4entity@2@@Z@entt@@XZ ; std::vector<entt::delegate<void __cdecl(entt::basic_registry<enum entt::entity> &,enum entt::entity)>,std::allocator<entt::delegate<void __cdecl(entt::basic_registry<enum entt::entity> &,enum entt::entity)> > >::_Unchecked_begin
PUBLIC	?_Unchecked_end@?$vector@V?$delegate@$$A6AXAEAV?$basic_registry@W4entity@entt@@@entt@@W4entity@2@@Z@entt@@V?$allocator@V?$delegate@$$A6AXAEAV?$basic_registry@W4entity@entt@@@entt@@W4entity@2@@Z@entt@@@std@@@std@@QEBAPEBV?$delegate@$$A6AXAEAV?$basic_registry@W4entity@entt@@@entt@@W4entity@2@@Z@entt@@XZ ; std::vector<entt::delegate<void __cdecl(entt::basic_registry<enum entt::entity> &,enum entt::entity)>,std::allocator<entt::delegate<void __cdecl(entt::basic_registry<enum entt::entity> &,enum entt::entity)> > >::_Unchecked_end
PUBLIC	?_Destroy@?$vector@V?$delegate@$$A6AXAEAV?$basic_registry@W4entity@entt@@@entt@@W4entity@2@@Z@entt@@V?$allocator@V?$delegate@$$A6AXAEAV?$basic_registry@W4entity@entt@@@entt@@W4entity@2@@Z@entt@@@std@@@std@@AEAAXPEAV?$delegate@$$A6AXAEAV?$basic_registry@W4entity@entt@@@entt@@W4entity@2@@Z@entt@@0@Z ; std::vector<entt::delegate<void __cdecl(entt::basic_registry<enum entt::entity> &,enum entt::entity)>,std::allocator<entt::delegate<void __cdecl(entt::basic_registry<enum entt::entity> &,enum entt::entity)> > >::_Destroy
PUBLIC	?_Tidy@?$vector@V?$delegate@$$A6AXAEAV?$basic_registry@W4entity@entt@@@entt@@W4entity@2@@Z@entt@@V?$allocator@V?$delegate@$$A6AXAEAV?$basic_registry@W4entity@entt@@@entt@@W4entity@2@@Z@entt@@@std@@@std@@AEAAXXZ ; std::vector<entt::delegate<void __cdecl(entt::basic_registry<enum entt::entity> &,enum entt::entity)>,std::allocator<entt::delegate<void __cdecl(entt::basic_registry<enum entt::entity> &,enum entt::entity)> > >::_Tidy
PUBLIC	?_Getal@?$vector@V?$delegate@$$A6AXAEAV?$basic_registry@W4entity@entt@@@entt@@W4entity@2@@Z@entt@@V?$allocator@V?$delegate@$$A6AXAEAV?$basic_registry@W4entity@entt@@@entt@@W4entity@2@@Z@entt@@@std@@@std@@AEAAAEAV?$allocator@V?$delegate@$$A6AXAEAV?$basic_registry@W4entity@entt@@@entt@@W4entity@2@@Z@entt@@@2@XZ ; std::vector<entt::delegate<void __cdecl(entt::basic_registry<enum entt::entity> &,enum entt::entity)>,std::allocator<entt::delegate<void __cdecl(entt::basic_registry<enum entt::entity> &,enum entt::entity)> > >::_Getal
PUBLIC	??0?$_Vector_val@U?$_Simple_types@V?$delegate@$$A6AXAEAV?$basic_registry@W4entity@entt@@@entt@@W4entity@2@@Z@entt@@@std@@@std@@QEAA@XZ ; std::_Vector_val<std::_Simple_types<entt::delegate<void __cdecl(entt::basic_registry<enum entt::entity> &,enum entt::entity)> > >::_Vector_val<std::_Simple_types<entt::delegate<void __cdecl(entt::basic_registry<enum entt::entity> &,enum entt::entity)> > >
PUBLIC	?_Get_first@?$_Compressed_pair@V?$allocator@V?$delegate@$$A6AXAEAV?$basic_registry@W4entity@entt@@@entt@@W4entity@2@@Z@entt@@@std@@V?$_Vector_val@U?$_Simple_types@V?$delegate@$$A6AXAEAV?$basic_registry@W4entity@entt@@@entt@@W4entity@2@@Z@entt@@@std@@@2@$00@std@@QEAAAEAV?$allocator@V?$delegate@$$A6AXAEAV?$basic_registry@W4entity@entt@@@entt@@W4entity@2@@Z@entt@@@2@XZ ; std::_Compressed_pair<std::allocator<entt::delegate<void __cdecl(entt::basic_registry<enum entt::entity> &,enum entt::entity)> >,std::_Vector_val<std::_Simple_types<entt::delegate<void __cdecl(entt::basic_registry<enum entt::entity> &,enum entt::entity)> > >,1>::_Get_first
PUBLIC	??0?$sigh@$$A6AXAEAV?$basic_registry@W4entity@entt@@@entt@@W4entity@2@@Z@entt@@QEAA@XZ ; entt::sigh<void __cdecl(entt::basic_registry<enum entt::entity> &,enum entt::entity)>::sigh<void __cdecl(entt::basic_registry<enum entt::entity> &,enum entt::entity)>
PUBLIC	??1?$sigh@$$A6AXAEAV?$basic_registry@W4entity@entt@@@entt@@W4entity@2@@Z@entt@@QEAA@XZ ; entt::sigh<void __cdecl(entt::basic_registry<enum entt::entity> &,enum entt::entity)>::~sigh<void __cdecl(entt::basic_registry<enum entt::entity> &,enum entt::entity)>
PUBLIC	??0?$pool_handler@UTransformComponent@Immortal@@@?$basic_registry@W4entity@entt@@@entt@@QEAA@XZ ; entt::basic_registry<enum entt::entity>::pool_handler<Immortal::TransformComponent>::pool_handler<Immortal::TransformComponent>
PUBLIC	??1?$pool_handler@UTransformComponent@Immortal@@@?$basic_registry@W4entity@entt@@@entt@@UEAA@XZ ; entt::basic_registry<enum entt::entity>::pool_handler<Immortal::TransformComponent>::~pool_handler<Immortal::TransformComponent>
PUBLIC	??_G?$pool_handler@UTransformComponent@Immortal@@@?$basic_registry@W4entity@entt@@@entt@@UEAAPEAXI@Z ; entt::basic_registry<enum entt::entity>::pool_handler<Immortal::TransformComponent>::`scalar deleting destructor'
PUBLIC	??$_Deallocate_plain@V?$allocator@U_Container_proxy@std@@@std@@@std@@YAXAEAV?$allocator@U_Container_proxy@std@@@0@QEAU_Container_proxy@0@@Z ; std::_Deallocate_plain<std::allocator<std::_Container_proxy> >
PUBLIC	??$addressof@U_Container_proxy@std@@@std@@YAPEAU_Container_proxy@0@AEAU10@@Z ; std::addressof<std::_Container_proxy>
PUBLIC	??$_Voidify_iter@PEAU_Container_proxy@std@@@std@@YAPEAXPEAU_Container_proxy@0@@Z ; std::_Voidify_iter<std::_Container_proxy *>
PUBLIC	??$forward@PEAU_Container_base12@std@@@std@@YA$$QEAPEAU_Container_base12@0@AEAPEAU10@@Z ; std::forward<std::_Container_base12 *>
PUBLIC	??$_Allocate_manually_vector_aligned@U_Default_allocate_traits@std@@@std@@YAPEAX_K@Z ; std::_Allocate_manually_vector_aligned<std::_Default_allocate_traits>
PUBLIC	??$swap@UTransformComponent@Immortal@@$0A@@std@@YAXAEAUTransformComponent@Immortal@@0@Z ; std::swap<Immortal::TransformComponent,0>
PUBLIC	??$as_const@V?$storage@W4entity@entt@@UTransformComponent@Immortal@@X@entt@@@std@@YAAEBV?$storage@W4entity@entt@@UTransformComponent@Immortal@@X@entt@@AEAV12@@Z ; std::as_const<entt::storage<enum entt::entity,Immortal::TransformComponent,void> >
PUBLIC	??1?$unique_ptr@$$BY0A@W4entity@entt@@U?$default_delete@$$BY0A@W4entity@entt@@@std@@@std@@QEAA@XZ ; std::unique_ptr<enum entt::entity [0],std::default_delete<enum entt::entity [0]> >::~unique_ptr<enum entt::entity [0],std::default_delete<enum entt::entity [0]> >
PUBLIC	??A?$unique_ptr@$$BY0A@W4entity@entt@@U?$default_delete@$$BY0A@W4entity@entt@@@std@@@std@@QEBAAEAW4entity@entt@@_K@Z ; std::unique_ptr<enum entt::entity [0],std::default_delete<enum entt::entity [0]> >::operator[]
PUBLIC	??B?$unique_ptr@$$BY0A@W4entity@entt@@U?$default_delete@$$BY0A@W4entity@entt@@@std@@@std@@QEBA_NXZ ; std::unique_ptr<enum entt::entity [0],std::default_delete<enum entt::entity [0]> >::operator bool
PUBLIC	?_Get_first@?$_Compressed_pair@U?$default_delete@$$BY0A@W4entity@entt@@@std@@PEAW4entity@entt@@$00@std@@QEAAAEAU?$default_delete@$$BY0A@W4entity@entt@@@2@XZ ; std::_Compressed_pair<std::default_delete<enum entt::entity [0]>,enum entt::entity *,1>::_Get_first
PUBLIC	??_G?$unique_ptr@$$BY0A@W4entity@entt@@U?$default_delete@$$BY0A@W4entity@entt@@@std@@@std@@QEAAPEAXI@Z ; std::unique_ptr<enum entt::entity [0],std::default_delete<enum entt::entity [0]> >::`scalar deleting destructor'
PUBLIC	??$swap@W4entity@entt@@$0A@@std@@YAXAEAW4entity@entt@@0@Z ; std::swap<enum entt::entity,0>
PUBLIC	??$?9W4entity@entt@@@internal@entt@@YA_NW4entity@1@Vnull@01@@Z ; entt::internal::operator!=<enum entt::entity>
PUBLIC	??$as_const@V?$basic_registry@W4entity@entt@@@entt@@@std@@YAAEBV?$basic_registry@W4entity@entt@@@entt@@AEAV12@@Z ; std::as_const<entt::basic_registry<enum entt::entity> >
PUBLIC	?deallocate@?$_Default_allocator_traits@V?$allocator@U_Container_proxy@std@@@std@@@std@@SAXAEAV?$allocator@U_Container_proxy@std@@@2@QEAU_Container_proxy@2@_K@Z ; std::_Default_allocator_traits<std::allocator<std::_Container_proxy> >::deallocate
PUBLIC	??$move@AEAUTransformComponent@Immortal@@@std@@YA$$QEAUTransformComponent@Immortal@@AEAU12@@Z ; std::move<Immortal::TransformComponent &>
PUBLIC	??$move@AEAW4entity@entt@@@std@@YA$$QEAW4entity@entt@@AEAW412@@Z ; std::move<enum entt::entity &>
PUBLIC	??$?8W4entity@entt@@@null@internal@entt@@QEBA_NW4entity@2@@Z ; entt::internal::null::operator==<enum entt::entity>
PUBLIC	?value@?$type_index@UTransformComponent@Immortal@@X@entt@@SAIXZ ; entt::type_index<Immortal::TransformComponent,void>::value
PUBLIC	??R?$default_delete@V?$sparse_set@W4entity@entt@@@entt@@@std@@QEBAXPEAV?$sparse_set@W4entity@entt@@@entt@@@Z ; std::default_delete<entt::sparse_set<enum entt::entity> >::operator()
PUBLIC	??1?$unique_ptr@V?$sparse_set@W4entity@entt@@@entt@@U?$default_delete@V?$sparse_set@W4entity@entt@@@entt@@@std@@@std@@QEAA@XZ ; std::unique_ptr<entt::sparse_set<enum entt::entity>,std::default_delete<entt::sparse_set<enum entt::entity> > >::~unique_ptr<entt::sparse_set<enum entt::entity>,std::default_delete<entt::sparse_set<enum entt::entity> > >
PUBLIC	?get_deleter@?$unique_ptr@V?$sparse_set@W4entity@entt@@@entt@@U?$default_delete@V?$sparse_set@W4entity@entt@@@entt@@@std@@@std@@QEAAAEAU?$default_delete@V?$sparse_set@W4entity@entt@@@entt@@@2@XZ ; std::unique_ptr<entt::sparse_set<enum entt::entity>,std::default_delete<entt::sparse_set<enum entt::entity> > >::get_deleter
PUBLIC	??D?$unique_ptr@V?$sparse_set@W4entity@entt@@@entt@@U?$default_delete@V?$sparse_set@W4entity@entt@@@entt@@@std@@@std@@QEBAAEAV?$sparse_set@W4entity@entt@@@entt@@XZ ; std::unique_ptr<entt::sparse_set<enum entt::entity>,std::default_delete<entt::sparse_set<enum entt::entity> > >::operator*
PUBLIC	??B?$unique_ptr@V?$sparse_set@W4entity@entt@@@entt@@U?$default_delete@V?$sparse_set@W4entity@entt@@@entt@@@std@@@std@@QEBA_NXZ ; std::unique_ptr<entt::sparse_set<enum entt::entity>,std::default_delete<entt::sparse_set<enum entt::entity> > >::operator bool
PUBLIC	?release@?$unique_ptr@V?$sparse_set@W4entity@entt@@@entt@@U?$default_delete@V?$sparse_set@W4entity@entt@@@entt@@@std@@@std@@QEAAPEAV?$sparse_set@W4entity@entt@@@entt@@XZ ; std::unique_ptr<entt::sparse_set<enum entt::entity>,std::default_delete<entt::sparse_set<enum entt::entity> > >::release
PUBLIC	?reset@?$unique_ptr@V?$sparse_set@W4entity@entt@@@entt@@U?$default_delete@V?$sparse_set@W4entity@entt@@@entt@@@std@@@std@@QEAAXPEAV?$sparse_set@W4entity@entt@@@entt@@@Z ; std::unique_ptr<entt::sparse_set<enum entt::entity>,std::default_delete<entt::sparse_set<enum entt::entity> > >::reset
PUBLIC	?_Get_first@?$_Compressed_pair@U?$default_delete@V?$sparse_set@W4entity@entt@@@entt@@@std@@PEAV?$sparse_set@W4entity@entt@@@entt@@$00@std@@QEAAAEAU?$default_delete@V?$sparse_set@W4entity@entt@@@entt@@@2@XZ ; std::_Compressed_pair<std::default_delete<entt::sparse_set<enum entt::entity> >,entt::sparse_set<enum entt::entity> *,1>::_Get_first
PUBLIC	??$?0U?$default_delete@V?$sparse_set@W4entity@entt@@@entt@@@std@@$0A@@?$unique_ptr@V?$sparse_set@W4entity@entt@@@entt@@U?$default_delete@V?$sparse_set@W4entity@entt@@@entt@@@std@@@std@@QEAA@$$QEAV01@@Z ; std::unique_ptr<entt::sparse_set<enum entt::entity>,std::default_delete<entt::sparse_set<enum entt::entity> > >::unique_ptr<entt::sparse_set<enum entt::entity>,std::default_delete<entt::sparse_set<enum entt::entity> > ><std::default_delete<entt::sparse_set<enum entt::entity> >,0>
PUBLIC	??0pool_data@?$basic_registry@W4entity@entt@@@entt@@QEAA@XZ ; entt::basic_registry<enum entt::entity>::pool_data::pool_data
PUBLIC	??1pool_data@?$basic_registry@W4entity@entt@@@entt@@QEAA@XZ ; entt::basic_registry<enum entt::entity>::pool_data::~pool_data
PUBLIC	??0pool_data@?$basic_registry@W4entity@entt@@@entt@@QEAA@$$QEAU012@@Z ; entt::basic_registry<enum entt::entity>::pool_data::pool_data
PUBLIC	??_Gpool_data@?$basic_registry@W4entity@entt@@@entt@@QEAAPEAXI@Z ; entt::basic_registry<enum entt::entity>::pool_data::`scalar deleting destructor'
PUBLIC	?id@?$type_info@UTransformComponent@Immortal@@X@entt@@SAIXZ ; entt::type_info<Immortal::TransformComponent,void>::id
PUBLIC	??R<lambda_53fa40d52f5baf1e8ae478abaa8f009b>@@QEBAXAEAV?$sparse_set@W4entity@entt@@@entt@@AEAV?$basic_registry@W4entity@entt@@@2@W4entity@2@@Z ; <lambda_53fa40d52f5baf1e8ae478abaa8f009b>::operator()
PUBLIC	?<lambda_invoker_cdecl>@<lambda_53fa40d52f5baf1e8ae478abaa8f009b>@@CAXAEAV?$sparse_set@W4entity@entt@@@entt@@AEAV?$basic_registry@W4entity@entt@@@3@W4entity@3@@Z ; <lambda_53fa40d52f5baf1e8ae478abaa8f009b>::<lambda_invoker_cdecl>
PUBLIC	??B<lambda_53fa40d52f5baf1e8ae478abaa8f009b>@@QEBAP6AXAEAV?$sparse_set@W4entity@entt@@@entt@@AEAV?$basic_registry@W4entity@entt@@@2@W4entity@2@@ZXZ ; <lambda_53fa40d52f5baf1e8ae478abaa8f009b>::operator void (__cdecl*)(entt::sparse_set<enum entt::entity> &,entt::basic_registry<enum entt::entity> &,enum entt::entity)
PUBLIC	??$exchange@PEAV?$sparse_set@W4entity@entt@@@entt@@AEAPEAV12@@std@@YAPEAV?$sparse_set@W4entity@entt@@@entt@@AEAPEAV12@0@Z ; std::exchange<entt::sparse_set<enum entt::entity> *,entt::sparse_set<enum entt::entity> * &>
PUBLIC	??$?0V?$delegate@$$A6AXAEAV?$basic_registry@W4entity@entt@@@entt@@W4entity@2@@Z@entt@@@?$allocator@U_Container_proxy@std@@@std@@QEAA@AEBV?$allocator@V?$delegate@$$A6AXAEAV?$basic_registry@W4entity@entt@@@entt@@W4entity@2@@Z@entt@@@1@@Z ; std::allocator<std::_Container_proxy>::allocator<std::_Container_proxy><entt::delegate<void __cdecl(entt::basic_registry<enum entt::entity> &,enum entt::entity)> >
PUBLIC	??$?0$$V@?$_Compressed_pair@V?$allocator@V?$delegate@$$A6AXAEAV?$basic_registry@W4entity@entt@@@entt@@W4entity@2@@Z@entt@@@std@@V?$_Vector_val@U?$_Simple_types@V?$delegate@$$A6AXAEAV?$basic_registry@W4entity@entt@@@entt@@W4entity@2@@Z@entt@@@std@@@2@$00@std@@QEAA@U_Zero_then_variadic_args_t@1@@Z ; std::_Compressed_pair<std::allocator<entt::delegate<void __cdecl(entt::basic_registry<enum entt::entity> &,enum entt::entity)> >,std::_Vector_val<std::_Simple_types<entt::delegate<void __cdecl(entt::basic_registry<enum entt::entity> &,enum entt::entity)> > >,1>::_Compressed_pair<std::allocator<entt::delegate<void __cdecl(entt::basic_registry<enum entt::entity> &,enum entt::entity)> >,std::_Vector_val<std::_Simple_types<entt::delegate<void __cdecl(entt::basic_registry<enum entt::entity> &,enum entt::entity)> > >,1><>
PUBLIC	??$?0UTransformComponent@Immortal@@@?$allocator@U_Container_proxy@std@@@std@@QEAA@AEBV?$allocator@UTransformComponent@Immortal@@@1@@Z ; std::allocator<std::_Container_proxy>::allocator<std::_Container_proxy><Immortal::TransformComponent>
PUBLIC	??$?0$$V@?$_Compressed_pair@V?$allocator@UTransformComponent@Immortal@@@std@@V?$_Vector_val@U?$_Simple_types@UTransformComponent@Immortal@@@std@@@2@$00@std@@QEAA@U_Zero_then_variadic_args_t@1@@Z ; std::_Compressed_pair<std::allocator<Immortal::TransformComponent>,std::_Vector_val<std::_Simple_types<Immortal::TransformComponent> >,1>::_Compressed_pair<std::allocator<Immortal::TransformComponent>,std::_Vector_val<std::_Simple_types<Immortal::TransformComponent> >,1><>
PUBLIC	??$?0V?$unique_ptr@$$BY0A@W4entity@entt@@U?$default_delete@$$BY0A@W4entity@entt@@@std@@@std@@@?$allocator@U_Container_proxy@std@@@std@@QEAA@AEBV?$allocator@V?$unique_ptr@$$BY0A@W4entity@entt@@U?$default_delete@$$BY0A@W4entity@entt@@@std@@@std@@@1@@Z ; std::allocator<std::_Container_proxy>::allocator<std::_Container_proxy><std::unique_ptr<enum entt::entity [0],std::default_delete<enum entt::entity [0]> > >
PUBLIC	??$?0$$V@?$_Compressed_pair@V?$allocator@V?$unique_ptr@$$BY0A@W4entity@entt@@U?$default_delete@$$BY0A@W4entity@entt@@@std@@@std@@@std@@V?$_Vector_val@U?$_Simple_types@V?$unique_ptr@$$BY0A@W4entity@entt@@U?$default_delete@$$BY0A@W4entity@entt@@@std@@@std@@@std@@@2@$00@std@@QEAA@U_Zero_then_variadic_args_t@1@@Z ; std::_Compressed_pair<std::allocator<std::unique_ptr<enum entt::entity [0],std::default_delete<enum entt::entity [0]> > >,std::_Vector_val<std::_Simple_types<std::unique_ptr<enum entt::entity [0],std::default_delete<enum entt::entity [0]> > > >,1>::_Compressed_pair<std::allocator<std::unique_ptr<enum entt::entity [0],std::default_delete<enum entt::entity [0]> > >,std::_Vector_val<std::_Simple_types<std::unique_ptr<enum entt::entity [0],std::default_delete<enum entt::entity [0]> > > >,1><>
PUBLIC	??$?0W4entity@entt@@@?$allocator@U_Container_proxy@std@@@std@@QEAA@AEBV?$allocator@W4entity@entt@@@1@@Z ; std::allocator<std::_Container_proxy>::allocator<std::_Container_proxy><enum entt::entity>
PUBLIC	??$?0$$V@?$_Compressed_pair@V?$allocator@W4entity@entt@@@std@@V?$_Vector_val@U?$_Simple_types@W4entity@entt@@@std@@@2@$00@std@@QEAA@U_Zero_then_variadic_args_t@1@@Z ; std::_Compressed_pair<std::allocator<enum entt::entity>,std::_Vector_val<std::_Simple_types<enum entt::entity> >,1>::_Compressed_pair<std::allocator<enum entt::entity>,std::_Vector_val<std::_Simple_types<enum entt::entity> >,1><>
PUBLIC	??$_Resize@U_Value_init_tag@std@@@?$vector@Upool_data@?$basic_registry@W4entity@entt@@@entt@@V?$allocator@Upool_data@?$basic_registry@W4entity@entt@@@entt@@@std@@@std@@AEAAX_KAEBU_Value_init_tag@1@@Z ; std::vector<entt::basic_registry<enum entt::entity>::pool_data,std::allocator<entt::basic_registry<enum entt::entity>::pool_data> >::_Resize<std::_Value_init_tag>
PUBLIC	??R?$delegate@$$A6AXAEAV?$basic_registry@W4entity@entt@@@entt@@W4entity@2@@Z@entt@@QEBAXAEAV?$basic_registry@W4entity@entt@@@1@W4entity@1@@Z ; entt::delegate<void __cdecl(entt::basic_registry<enum entt::entity> &,enum entt::entity)>::operator()
PUBLIC	??$as_const@$$CBV?$vector@V?$delegate@$$A6AXAEAV?$basic_registry@W4entity@entt@@@entt@@W4entity@2@@Z@entt@@V?$allocator@V?$delegate@$$A6AXAEAV?$basic_registry@W4entity@entt@@@entt@@W4entity@2@@Z@entt@@@std@@@std@@@std@@YAAEBV?$vector@V?$delegate@$$A6AXAEAV?$basic_registry@W4entity@entt@@@entt@@W4entity@2@@Z@entt@@V?$allocator@V?$delegate@$$A6AXAEAV?$basic_registry@W4entity@entt@@@entt@@W4entity@2@@Z@entt@@@std@@@0@AEBV10@@Z ; std::as_const<std::vector<entt::delegate<void __cdecl(entt::basic_registry<enum entt::entity> &,enum entt::entity)>,std::allocator<entt::delegate<void __cdecl(entt::basic_registry<enum entt::entity> &,enum entt::entity)> > > const >
PUBLIC	??$forward@AEAV?$basic_registry@W4entity@entt@@@entt@@@std@@YAAEAV?$basic_registry@W4entity@entt@@@entt@@AEAV12@@Z ; std::forward<entt::basic_registry<enum entt::entity> &>
PUBLIC	??$forward@W4entity@entt@@@std@@YA$$QEAW4entity@entt@@AEAW412@@Z ; std::forward<enum entt::entity>
PUBLIC	??$_Destroy_range@V?$allocator@V?$delegate@$$A6AXAEAV?$basic_registry@W4entity@entt@@@entt@@W4entity@2@@Z@entt@@@std@@@std@@YAXPEAV?$delegate@$$A6AXAEAV?$basic_registry@W4entity@entt@@@entt@@W4entity@2@@Z@entt@@QEAV12@AEAV?$allocator@V?$delegate@$$A6AXAEAV?$basic_registry@W4entity@entt@@@entt@@W4entity@2@@Z@entt@@@0@@Z ; std::_Destroy_range<std::allocator<entt::delegate<void __cdecl(entt::basic_registry<enum entt::entity> &,enum entt::entity)> > >
PUBLIC	??$_Destroy_range@V?$allocator@UTransformComponent@Immortal@@@std@@@std@@YAXPEAUTransformComponent@Immortal@@QEAU12@AEAV?$allocator@UTransformComponent@Immortal@@@0@@Z ; std::_Destroy_range<std::allocator<Immortal::TransformComponent> >
PUBLIC	??$_Unfancy@UTransformComponent@Immortal@@@std@@YAPEAUTransformComponent@Immortal@@PEAU12@@Z ; std::_Unfancy<Immortal::TransformComponent>
PUBLIC	??$destroy@UTransformComponent@Immortal@@@?$_Default_allocator_traits@V?$allocator@UTransformComponent@Immortal@@@std@@@std@@SAXAEAV?$allocator@UTransformComponent@Immortal@@@1@QEAUTransformComponent@Immortal@@@Z ; std::_Default_allocator_traits<std::allocator<Immortal::TransformComponent> >::destroy<Immortal::TransformComponent>
PUBLIC	??$_Destroy_range@V?$allocator@V?$unique_ptr@$$BY0A@W4entity@entt@@U?$default_delete@$$BY0A@W4entity@entt@@@std@@@std@@@std@@@std@@YAXPEAV?$unique_ptr@$$BY0A@W4entity@entt@@U?$default_delete@$$BY0A@W4entity@entt@@@std@@@0@QEAV10@AEAV?$allocator@V?$unique_ptr@$$BY0A@W4entity@entt@@U?$default_delete@$$BY0A@W4entity@entt@@@std@@@std@@@0@@Z ; std::_Destroy_range<std::allocator<std::unique_ptr<enum entt::entity [0],std::default_delete<enum entt::entity [0]> > > >
PUBLIC	??$_Destroy_range@V?$allocator@W4entity@entt@@@std@@@std@@YAXPEAW4entity@entt@@QEAW412@AEAV?$allocator@W4entity@entt@@@0@@Z ; std::_Destroy_range<std::allocator<enum entt::entity> >
PUBLIC	??$_Unfancy@W4entity@entt@@@std@@YAPEAW4entity@entt@@PEAW412@@Z ; std::_Unfancy<enum entt::entity>
PUBLIC	??$destroy@W4entity@entt@@@?$_Default_allocator_traits@V?$allocator@W4entity@entt@@@std@@@std@@SAXAEAV?$allocator@W4entity@entt@@@1@QEAW4entity@entt@@@Z ; std::_Default_allocator_traits<std::allocator<enum entt::entity> >::destroy<enum entt::entity>
PUBLIC	??$_Resize_reallocate@U_Value_init_tag@std@@@?$vector@Upool_data@?$basic_registry@W4entity@entt@@@entt@@V?$allocator@Upool_data@?$basic_registry@W4entity@entt@@@entt@@@std@@@std@@AEAAX_KAEBU_Value_init_tag@1@@Z ; std::vector<entt::basic_registry<enum entt::entity>::pool_data,std::allocator<entt::basic_registry<enum entt::entity>::pool_data> >::_Resize_reallocate<std::_Value_init_tag>
PUBLIC	??$_Unfancy@V?$unique_ptr@$$BY0A@W4entity@entt@@U?$default_delete@$$BY0A@W4entity@entt@@@std@@@std@@@std@@YAPEAV?$unique_ptr@$$BY0A@W4entity@entt@@U?$default_delete@$$BY0A@W4entity@entt@@@std@@@0@PEAV10@@Z ; std::_Unfancy<std::unique_ptr<enum entt::entity [0],std::default_delete<enum entt::entity [0]> > >
PUBLIC	??$destroy@V?$unique_ptr@$$BY0A@W4entity@entt@@U?$default_delete@$$BY0A@W4entity@entt@@@std@@@std@@@?$_Default_allocator_traits@V?$allocator@V?$unique_ptr@$$BY0A@W4entity@entt@@U?$default_delete@$$BY0A@W4entity@entt@@@std@@@std@@@std@@@std@@SAXAEAV?$allocator@V?$unique_ptr@$$BY0A@W4entity@entt@@U?$default_delete@$$BY0A@W4entity@entt@@@std@@@std@@@1@QEAV?$unique_ptr@$$BY0A@W4entity@entt@@U?$default_delete@$$BY0A@W4entity@entt@@@std@@@1@@Z ; std::_Default_allocator_traits<std::allocator<std::unique_ptr<enum entt::entity [0],std::default_delete<enum entt::entity [0]> > > >::destroy<std::unique_ptr<enum entt::entity [0],std::default_delete<enum entt::entity [0]> > >
PUBLIC	??$_Destroy_range@V?$allocator@Upool_data@?$basic_registry@W4entity@entt@@@entt@@@std@@@std@@YAXPEAUpool_data@?$basic_registry@W4entity@entt@@@entt@@QEAU123@AEAV?$allocator@Upool_data@?$basic_registry@W4entity@entt@@@entt@@@0@@Z ; std::_Destroy_range<std::allocator<entt::basic_registry<enum entt::entity>::pool_data> >
PUBLIC	??$_Uninitialized_value_construct_n@V?$allocator@Upool_data@?$basic_registry@W4entity@entt@@@entt@@@std@@@std@@YAPEAUpool_data@?$basic_registry@W4entity@entt@@@entt@@PEAU123@_KAEAV?$allocator@Upool_data@?$basic_registry@W4entity@entt@@@entt@@@0@@Z ; std::_Uninitialized_value_construct_n<std::allocator<entt::basic_registry<enum entt::entity>::pool_data> >
PUBLIC	??$_Unfancy@Upool_data@?$basic_registry@W4entity@entt@@@entt@@@std@@YAPEAUpool_data@?$basic_registry@W4entity@entt@@@entt@@PEAU123@@Z ; std::_Unfancy<entt::basic_registry<enum entt::entity>::pool_data>
PUBLIC	??$destroy@Upool_data@?$basic_registry@W4entity@entt@@@entt@@@?$_Default_allocator_traits@V?$allocator@Upool_data@?$basic_registry@W4entity@entt@@@entt@@@std@@@std@@SAXAEAV?$allocator@Upool_data@?$basic_registry@W4entity@entt@@@entt@@@1@QEAUpool_data@?$basic_registry@W4entity@entt@@@entt@@@Z ; std::_Default_allocator_traits<std::allocator<entt::basic_registry<enum entt::entity>::pool_data> >::destroy<entt::basic_registry<enum entt::entity>::pool_data>
PUBLIC	??0?$_Uninitialized_backout_al@V?$allocator@Upool_data@?$basic_registry@W4entity@entt@@@entt@@@std@@@std@@QEAA@PEAUpool_data@?$basic_registry@W4entity@entt@@@entt@@AEAV?$allocator@Upool_data@?$basic_registry@W4entity@entt@@@entt@@@1@@Z ; std::_Uninitialized_backout_al<std::allocator<entt::basic_registry<enum entt::entity>::pool_data> >::_Uninitialized_backout_al<std::allocator<entt::basic_registry<enum entt::entity>::pool_data> >
PUBLIC	??1?$_Uninitialized_backout_al@V?$allocator@Upool_data@?$basic_registry@W4entity@entt@@@entt@@@std@@@std@@QEAA@XZ ; std::_Uninitialized_backout_al<std::allocator<entt::basic_registry<enum entt::entity>::pool_data> >::~_Uninitialized_backout_al<std::allocator<entt::basic_registry<enum entt::entity>::pool_data> >
PUBLIC	?_Release@?$_Uninitialized_backout_al@V?$allocator@Upool_data@?$basic_registry@W4entity@entt@@@entt@@@std@@@std@@QEAAPEAUpool_data@?$basic_registry@W4entity@entt@@@entt@@XZ ; std::_Uninitialized_backout_al<std::allocator<entt::basic_registry<enum entt::entity>::pool_data> >::_Release
PUBLIC	??$_Emplace_back@$$V@?$_Uninitialized_backout_al@V?$allocator@Upool_data@?$basic_registry@W4entity@entt@@@entt@@@std@@@std@@QEAAXXZ ; std::_Uninitialized_backout_al<std::allocator<entt::basic_registry<enum entt::entity>::pool_data> >::_Emplace_back<>
PUBLIC	??$?RW4entity@entt@@$0A@@?$default_delete@$$BY0A@W4entity@entt@@@std@@QEBAXPEAW4entity@entt@@@Z ; std::default_delete<enum entt::entity [0]>::operator()<enum entt::entity,0>
PUBLIC	??$_Get_size_of_n@$0BI@@std@@YA_K_K@Z		; std::_Get_size_of_n<24>
PUBLIC	??$_Uninitialized_move@PEAUpool_data@?$basic_registry@W4entity@entt@@@entt@@V?$allocator@Upool_data@?$basic_registry@W4entity@entt@@@entt@@@std@@@std@@YAPEAUpool_data@?$basic_registry@W4entity@entt@@@entt@@QEAU123@0PEAU123@AEAV?$allocator@Upool_data@?$basic_registry@W4entity@entt@@@entt@@@0@@Z ; std::_Uninitialized_move<entt::basic_registry<enum entt::entity>::pool_data *,std::allocator<entt::basic_registry<enum entt::entity>::pool_data> >
PUBLIC	??$construct@Upool_data@?$basic_registry@W4entity@entt@@@entt@@$$V@?$_Default_allocator_traits@V?$allocator@Upool_data@?$basic_registry@W4entity@entt@@@entt@@@std@@@std@@SAXAEAV?$allocator@Upool_data@?$basic_registry@W4entity@entt@@@entt@@@1@QEAUpool_data@?$basic_registry@W4entity@entt@@@entt@@@Z ; std::_Default_allocator_traits<std::allocator<entt::basic_registry<enum entt::entity>::pool_data> >::construct<entt::basic_registry<enum entt::entity>::pool_data>
PUBLIC	??$_Get_unwrapped@AEBQEAUpool_data@?$basic_registry@W4entity@entt@@@entt@@@std@@YA@AEBQEAUpool_data@?$basic_registry@W4entity@entt@@@entt@@@Z ; std::_Get_unwrapped<entt::basic_registry<enum entt::entity>::pool_data * const &>
PUBLIC	??$move@AEAUpool_data@?$basic_registry@W4entity@entt@@@entt@@@std@@YA$$QEAUpool_data@?$basic_registry@W4entity@entt@@@entt@@AEAU123@@Z ; std::move<entt::basic_registry<enum entt::entity>::pool_data &>
PUBLIC	??$_Emplace_back@Upool_data@?$basic_registry@W4entity@entt@@@entt@@@?$_Uninitialized_backout_al@V?$allocator@Upool_data@?$basic_registry@W4entity@entt@@@entt@@@std@@@std@@QEAAX$$QEAUpool_data@?$basic_registry@W4entity@entt@@@entt@@@Z ; std::_Uninitialized_backout_al<std::allocator<entt::basic_registry<enum entt::entity>::pool_data> >::_Emplace_back<entt::basic_registry<enum entt::entity>::pool_data>
PUBLIC	??$forward@Upool_data@?$basic_registry@W4entity@entt@@@entt@@@std@@YA$$QEAUpool_data@?$basic_registry@W4entity@entt@@@entt@@AEAU123@@Z ; std::forward<entt::basic_registry<enum entt::entity>::pool_data>
PUBLIC	??$construct@Upool_data@?$basic_registry@W4entity@entt@@@entt@@U123@@?$_Default_allocator_traits@V?$allocator@Upool_data@?$basic_registry@W4entity@entt@@@entt@@@std@@@std@@SAXAEAV?$allocator@Upool_data@?$basic_registry@W4entity@entt@@@entt@@@1@QEAUpool_data@?$basic_registry@W4entity@entt@@@entt@@$$QEAU345@@Z ; std::_Default_allocator_traits<std::allocator<entt::basic_registry<enum entt::entity>::pool_data> >::construct<entt::basic_registry<enum entt::entity>::pool_data,entt::basic_registry<enum entt::entity>::pool_data>
PUBLIC	??$?0U?$default_delete@V?$sparse_set@W4entity@entt@@@entt@@@std@@$0A@@?$unique_ptr@V?$sparse_set@W4entity@entt@@@entt@@U?$default_delete@V?$sparse_set@W4entity@entt@@@entt@@@std@@@std@@QEAA@XZ ; std::unique_ptr<entt::sparse_set<enum entt::entity>,std::default_delete<entt::sparse_set<enum entt::entity> > >::unique_ptr<entt::sparse_set<enum entt::entity>,std::default_delete<entt::sparse_set<enum entt::entity> > ><std::default_delete<entt::sparse_set<enum entt::entity> >,0>
PUBLIC	??$?0$$V@?$_Compressed_pair@U?$default_delete@V?$sparse_set@W4entity@entt@@@entt@@@std@@PEAV?$sparse_set@W4entity@entt@@@entt@@$00@std@@QEAA@U_Zero_then_variadic_args_t@1@@Z ; std::_Compressed_pair<std::default_delete<entt::sparse_set<enum entt::entity> >,entt::sparse_set<enum entt::entity> *,1>::_Compressed_pair<std::default_delete<entt::sparse_set<enum entt::entity> >,entt::sparse_set<enum entt::entity> *,1><>
PUBLIC	??$forward@U?$default_delete@V?$sparse_set@W4entity@entt@@@entt@@@std@@@std@@YA$$QEAU?$default_delete@V?$sparse_set@W4entity@entt@@@entt@@@0@AEAU10@@Z ; std::forward<std::default_delete<entt::sparse_set<enum entt::entity> > >
PUBLIC	??$?0U?$default_delete@V?$sparse_set@W4entity@entt@@@entt@@@std@@PEAV?$sparse_set@W4entity@entt@@@entt@@@?$_Compressed_pair@U?$default_delete@V?$sparse_set@W4entity@entt@@@entt@@@std@@PEAV?$sparse_set@W4entity@entt@@@entt@@$00@std@@QEAA@U_One_then_variadic_args_t@1@$$QEAU?$default_delete@V?$sparse_set@W4entity@entt@@@entt@@@1@$$QEAPEAV?$sparse_set@W4entity@entt@@@entt@@@Z ; std::_Compressed_pair<std::default_delete<entt::sparse_set<enum entt::entity> >,entt::sparse_set<enum entt::entity> *,1>::_Compressed_pair<std::default_delete<entt::sparse_set<enum entt::entity> >,entt::sparse_set<enum entt::entity> *,1><std::default_delete<entt::sparse_set<enum entt::entity> >,entt::sparse_set<enum entt::entity> *>
PUBLIC	??$exchange@PEAV?$sparse_set@W4entity@entt@@@entt@@$$T@std@@YAPEAV?$sparse_set@W4entity@entt@@@entt@@AEAPEAV12@$$QEA$$T@Z ; std::exchange<entt::sparse_set<enum entt::entity> *,std::nullptr_t>
PUBLIC	??$forward@PEAV?$sparse_set@W4entity@entt@@@entt@@@std@@YA$$QEAPEAV?$sparse_set@W4entity@entt@@@entt@@AEAPEAV12@@Z ; std::forward<entt::sparse_set<enum entt::entity> *>
PUBLIC	__JustMyCode_Default
PUBLIC	??_7exception@std@@6B@				; std::exception::`vftable'
PUBLIC	??_C@_0BC@EOODALEL@Unknown?5exception@		; `string'
PUBLIC	??_7bad_alloc@std@@6B@				; std::bad_alloc::`vftable'
PUBLIC	??_7bad_array_new_length@std@@6B@		; std::bad_array_new_length::`vftable'
PUBLIC	??_C@_0BF@KINCDENJ@bad?5array?5new?5length@	; `string'
PUBLIC	_TI3?AVbad_array_new_length@std@@
PUBLIC	_CTA3?AVbad_array_new_length@std@@
PUBLIC	??_R0?AVbad_array_new_length@std@@@8		; std::bad_array_new_length `RTTI Type Descriptor'
PUBLIC	_CT??_R0?AVbad_array_new_length@std@@@8??0bad_array_new_length@std@@QEAA@AEBV01@@Z24
PUBLIC	??_R0?AVbad_alloc@std@@@8			; std::bad_alloc `RTTI Type Descriptor'
PUBLIC	_CT??_R0?AVbad_alloc@std@@@8??0bad_alloc@std@@QEAA@AEBV01@@Z24
PUBLIC	??_R0?AVexception@std@@@8			; std::exception `RTTI Type Descriptor'
PUBLIC	_CT??_R0?AVexception@std@@@8??0exception@std@@QEAA@AEBV01@@Z24
PUBLIC	?__LINE__Var@?0??_Adjust_manually_vector_aligned@std@@YAXAEAPEAXAEA_K@Z@4JA ; `std::_Adjust_manually_vector_aligned'::`1'::__LINE__Var
PUBLIC	??_C@_0BB@FCMFBGOM@invalid?5argument@		; `string'
PUBLIC	??_C@_02DKCKIIND@?$CFs@				; `string'
PUBLIC	??_C@_0DG@GCMEILKK@D?3?2Code?2C?2Immortal?2ImmortalEdit@ ; `string'
PUBLIC	??_C@_1GM@DDOKJDGJ@?$AAD?$AA?3?$AA?2?$AAC?$AAo?$AAd?$AAe?$AA?2?$AAC?$AA?2?$AAI?$AAm?$AAm?$AAo?$AAr@ ; `string'
PUBLIC	??_C@_1EK@NIFDJFDG@?$AAs?$AAt?$AAd?$AA?3?$AA?3?$AA_?$AAA?$AAd?$AAj?$AAu?$AAs?$AAt?$AA_?$AAm?$AAa@ ; `string'
PUBLIC	??_C@_1CG@JNLFBNGN@?$AA?$CC?$AAi?$AAn?$AAv?$AAa?$AAl?$AAi?$AAd?$AA?5?$AAa?$AAr?$AAg?$AAu?$AAm?$AAe@ ; `string'
PUBLIC	??_C@_0DG@MKAILJAN@D?3?2Code?2C?2Immortal?2ImmortalEdit@ ; `string'
PUBLIC	?__LINE__Var@?0??_Maklocwcs@std@@YAPEA_WPEB_W@Z@4JA ; `std::_Maklocwcs'::`1'::__LINE__Var
PUBLIC	??_C@_0DG@EJEFLLKM@D?3?2Code?2C?2Immortal?2ImmortalEdit@ ; `string'
PUBLIC	?dragonbox_pow10_significands_128@?$basic_data@X@detail@v7@fmt@@2QBUuint128_wrapper@234@B ; fmt::v7::detail::basic_data<void>::dragonbox_pow10_significands_128
PUBLIC	??_C@_05IMBNNINJ@trace@				; `string'
PUBLIC	??_C@_05GFCDIDHO@debug@				; `string'
PUBLIC	??_C@_04NIDJFNBE@info@				; `string'
PUBLIC	??_C@_07FPLKDJGL@warning@			; `string'
PUBLIC	??_C@_05KKCIMGE@error@				; `string'
PUBLIC	??_C@_08CBBMEOFB@critical@			; `string'
PUBLIC	??_C@_03MCADLMAF@off@				; `string'
PUBLIC	?value@?1??next@type_index@internal@entt@@SAIXZ@4IA ; `entt::internal::type_index::next'::`2'::value
PUBLIC	?null@entt@@3V0internal@1@B			; entt::null
PUBLIC	??_C@_1HA@LMCDLKAB@?$AAD?$AA?3?$AA?2?$AAC?$AAo?$AAd?$AAe?$AA?2?$AAC?$AA?2?$AAI?$AAm?$AAm?$AAo?$AAr@ ; `string'
PUBLIC	??_7ScriptableObject@Immortal@@6B@		; Immortal::ScriptableObject::`vftable'
PUBLIC	??_7CubeController@Immortal@@6B@		; Immortal::CubeController::`vftable'
PUBLIC	??_C@_0BO@PFKOHNJC@vector?5subscript?5out?5of?5range@ ; `string'
PUBLIC	??_C@_0DF@COHCKIEB@D?3?2Code?2C?2Immortal?2ImmortalEdit@ ; `string'
PUBLIC	??_C@_1GK@LAKJODIA@?$AAD?$AA?3?$AA?2?$AAC?$AAo?$AAd?$AAe?$AA?2?$AAC?$AA?2?$AAI?$AAm?$AAm?$AAo?$AAr@ ; `string'
PUBLIC	??_C@_1EA@LEKOKFNB@?$AA?$CC?$AAv?$AAe?$AAc?$AAt?$AAo?$AAr?$AA?5?$AAs?$AAu?$AAb?$AAs?$AAc?$AAr?$AAi@ ; `string'
PUBLIC	??_C@_15ELGJDCCL@?$AAf?$AAn@			; `string'
PUBLIC	??_C@_0BO@OKMPKPLD@back?$CI?$CJ?5called?5on?5empty?5vector@ ; `string'
PUBLIC	??_C@_1EA@OBAHGFFK@?$AA?$CC?$AAb?$AAa?$AAc?$AAk?$AA?$CI?$AA?$CJ?$AA?5?$AAc?$AAa?$AAl?$AAl?$AAe?$AAd?$AA?5@ ; `string'
PUBLIC	??_C@_0BI@PJHAPDF@vector?5empty?5before?5pop@	; `string'
PUBLIC	??_C@_1DE@IPIBMNGD@?$AA?$CC?$AAv?$AAe?$AAc?$AAt?$AAo?$AAr?$AA?5?$AAe?$AAm?$AAp?$AAt?$AAy?$AA?5?$AAb@ ; `string'
PUBLIC	??_C@_0N@LPFKKEBD@?3AM?3am?3PM?3pm@		; `string'
PUBLIC	??_C@_1BK@MHIKGOKE@?$AA?3?$AAA?$AAM?$AA?3?$AAa?$AAm?$AA?3?$AAP?$AAM?$AA?3?$AAp?$AAm@ ; `string'
PUBLIC	??_7?$sparse_set@W4entity@entt@@@entt@@6B@	; entt::sparse_set<enum entt::entity>::`vftable'
PUBLIC	??_7?$storage@W4entity@entt@@UTransformComponent@Immortal@@X@entt@@6B@ ; entt::storage<enum entt::entity,Immortal::TransformComponent,void>::`vftable'
PUBLIC	??_7?$pool_handler@UTransformComponent@Immortal@@@?$basic_registry@W4entity@entt@@@entt@@6B@ ; entt::basic_registry<enum entt::entity>::pool_handler<Immortal::TransformComponent>::`vftable'
PUBLIC	??_C@_1BM@OFBGKGCB@?$AAv?$AAa?$AAl?$AAi?$AAd?$AA?$CI?$AAe?$AAn?$AAt?$AAi?$AAt?$AAy?$AA?$CJ@ ; `string'
PUBLIC	??_C@_0BA@FOIKENOD@vector?5too?5long@		; `string'
PUBLIC	??_C@_1PC@INDIMHMO@?$AAs?$AAt?$AAd?$AA?3?$AA?3?$AAv?$AAe?$AAc?$AAt?$AAo?$AAr?$AA?$DM?$AAs?$AAt?$AAr@ ; `string'
PUBLIC	??_C@_1BOE@HEJIJKBH@?$AAs?$AAt?$AAd?$AA?3?$AA?3?$AAv?$AAe?$AAc?$AAt?$AAo?$AAr?$AA?$DM?$AAc?$AAl?$AAa@ ; `string'
PUBLIC	??_C@_1BO@JBMCDLFF@?$AAc?$AAo?$AAn?$AAt?$AAa?$AAi?$AAn?$AAs?$AA?$CI?$AAe?$AAn?$AAt?$AAt?$AA?$CJ@ ; `string'
PUBLIC	??_C@_1KK@CJCILPFC@?$AAs?$AAt?$AAd?$AA?3?$AA?3?$AAv?$AAe?$AAc?$AAt?$AAo?$AAr?$AA?$DM?$AAe?$AAn?$AAu@ ; `string'
PUBLIC	??_C@_1EO@GFNCMDLA@?$AAs?$AAt?$AAd?$AA?3?$AA?3?$AA_?$AAA?$AAl?$AAl?$AAo?$AAc?$AAa?$AAt?$AAe?$AA_@ ; `string'
PUBLIC	?value@?1??0?$type_index@UTransformComponent@Immortal@@X@entt@@SAIXZ@4IB ; `entt::type_index<Immortal::TransformComponent,void>::value'::`2'::value
PUBLIC	?$TSS0@?1??value@?$type_index@UTransformComponent@Immortal@@X@entt@@SAIXZ@4HA ; `entt::type_index<Immortal::TransformComponent,void>::value'::`2'::$TSS0
PUBLIC	??_C@_1BEK@IKCIDBBB@?$AAs?$AAt?$AAd?$AA?3?$AA?3?$AAv?$AAe?$AAc?$AAt?$AAo?$AAr?$AA?$DM?$AAs?$AAt?$AAr@ ; `string'
PUBLIC	??_C@_1OE@OBPPCMBJ@?$AAs?$AAt?$AAd?$AA?3?$AA?3?$AAv?$AAe?$AAc?$AAt?$AAo?$AAr?$AA?$DM?$AAs?$AAt?$AAr@ ; `string'
PUBLIC	??_C@_1OM@DHIEJACJ@?$AAs?$AAt?$AAd?$AA?3?$AA?3?$AAv?$AAe?$AAc?$AAt?$AAo?$AAr?$AA?$DM?$AAs?$AAt?$AAr@ ; `string'
PUBLIC	??_C@_1JM@NGPFAAAJ@?$AAs?$AAt?$AAd?$AA?3?$AA?3?$AAv?$AAe?$AAc?$AAt?$AAo?$AAr?$AA?$DM?$AAe?$AAn?$AAu@ ; `string'
PUBLIC	??_C@_1KE@PBLILFBK@?$AAs?$AAt?$AAd?$AA?3?$AA?3?$AAv?$AAe?$AAc?$AAt?$AAo?$AAr?$AA?$DM?$AAe?$AAn?$AAu@ ; `string'
PUBLIC	??_R4exception@std@@6B@				; std::exception::`RTTI Complete Object Locator'
PUBLIC	??_R3exception@std@@8				; std::exception::`RTTI Class Hierarchy Descriptor'
PUBLIC	??_R2exception@std@@8				; std::exception::`RTTI Base Class Array'
PUBLIC	??_R1A@?0A@EA@exception@std@@8			; std::exception::`RTTI Base Class Descriptor at (0,-1,0,64)'
PUBLIC	??_R4bad_alloc@std@@6B@				; std::bad_alloc::`RTTI Complete Object Locator'
PUBLIC	??_R3bad_alloc@std@@8				; std::bad_alloc::`RTTI Class Hierarchy Descriptor'
PUBLIC	??_R2bad_alloc@std@@8				; std::bad_alloc::`RTTI Base Class Array'
PUBLIC	??_R1A@?0A@EA@bad_alloc@std@@8			; std::bad_alloc::`RTTI Base Class Descriptor at (0,-1,0,64)'
PUBLIC	??_R4bad_array_new_length@std@@6B@		; std::bad_array_new_length::`RTTI Complete Object Locator'
PUBLIC	??_R3bad_array_new_length@std@@8		; std::bad_array_new_length::`RTTI Class Hierarchy Descriptor'
PUBLIC	??_R2bad_array_new_length@std@@8		; std::bad_array_new_length::`RTTI Base Class Array'
PUBLIC	??_R1A@?0A@EA@bad_array_new_length@std@@8	; std::bad_array_new_length::`RTTI Base Class Descriptor at (0,-1,0,64)'
PUBLIC	??_R4ScriptableObject@Immortal@@6B@		; Immortal::ScriptableObject::`RTTI Complete Object Locator'
PUBLIC	??_R0?AVScriptableObject@Immortal@@@8		; Immortal::ScriptableObject `RTTI Type Descriptor'
PUBLIC	??_R3ScriptableObject@Immortal@@8		; Immortal::ScriptableObject::`RTTI Class Hierarchy Descriptor'
PUBLIC	??_R2ScriptableObject@Immortal@@8		; Immortal::ScriptableObject::`RTTI Base Class Array'
PUBLIC	??_R1A@?0A@EA@ScriptableObject@Immortal@@8	; Immortal::ScriptableObject::`RTTI Base Class Descriptor at (0,-1,0,64)'
PUBLIC	??_R4CubeController@Immortal@@6B@		; Immortal::CubeController::`RTTI Complete Object Locator'
PUBLIC	??_R0?AVCubeController@Immortal@@@8		; Immortal::CubeController `RTTI Type Descriptor'
PUBLIC	??_R3CubeController@Immortal@@8			; Immortal::CubeController::`RTTI Class Hierarchy Descriptor'
PUBLIC	??_R2CubeController@Immortal@@8			; Immortal::CubeController::`RTTI Base Class Array'
PUBLIC	??_R1A@?0A@EA@CubeController@Immortal@@8	; Immortal::CubeController::`RTTI Base Class Descriptor at (0,-1,0,64)'
PUBLIC	??_R4?$pool_handler@UTransformComponent@Immortal@@@?$basic_registry@W4entity@entt@@@entt@@6B@ ; entt::basic_registry<enum entt::entity>::pool_handler<Immortal::TransformComponent>::`RTTI Complete Object Locator'
PUBLIC	??_R0?AU?$pool_handler@UTransformComponent@Immortal@@@?$basic_registry@W4entity@entt@@@entt@@@8 ; entt::basic_registry<enum entt::entity>::pool_handler<Immortal::TransformComponent> `RTTI Type Descriptor'
PUBLIC	??_R3?$pool_handler@UTransformComponent@Immortal@@@?$basic_registry@W4entity@entt@@@entt@@8 ; entt::basic_registry<enum entt::entity>::pool_handler<Immortal::TransformComponent>::`RTTI Class Hierarchy Descriptor'
PUBLIC	??_R2?$pool_handler@UTransformComponent@Immortal@@@?$basic_registry@W4entity@entt@@@entt@@8 ; entt::basic_registry<enum entt::entity>::pool_handler<Immortal::TransformComponent>::`RTTI Base Class Array'
PUBLIC	??_R1A@?0A@EA@?$pool_handler@UTransformComponent@Immortal@@@?$basic_registry@W4entity@entt@@@entt@@8 ; entt::basic_registry<enum entt::entity>::pool_handler<Immortal::TransformComponent>::`RTTI Base Class Descriptor at (0,-1,0,64)'
PUBLIC	??_R1A@?0A@EA@?$storage@W4entity@entt@@UTransformComponent@Immortal@@X@entt@@8 ; entt::storage<enum entt::entity,Immortal::TransformComponent,void>::`RTTI Base Class Descriptor at (0,-1,0,64)'
PUBLIC	??_R0?AV?$storage@W4entity@entt@@UTransformComponent@Immortal@@X@entt@@@8 ; entt::storage<enum entt::entity,Immortal::TransformComponent,void> `RTTI Type Descriptor'
PUBLIC	??_R3?$storage@W4entity@entt@@UTransformComponent@Immortal@@X@entt@@8 ; entt::storage<enum entt::entity,Immortal::TransformComponent,void>::`RTTI Class Hierarchy Descriptor'
PUBLIC	??_R2?$storage@W4entity@entt@@UTransformComponent@Immortal@@X@entt@@8 ; entt::storage<enum entt::entity,Immortal::TransformComponent,void>::`RTTI Base Class Array'
PUBLIC	??_R1A@?0A@EA@?$sparse_set@W4entity@entt@@@entt@@8 ; entt::sparse_set<enum entt::entity>::`RTTI Base Class Descriptor at (0,-1,0,64)'
PUBLIC	??_R0?AV?$sparse_set@W4entity@entt@@@entt@@@8	; entt::sparse_set<enum entt::entity> `RTTI Type Descriptor'
PUBLIC	??_R3?$sparse_set@W4entity@entt@@@entt@@8	; entt::sparse_set<enum entt::entity>::`RTTI Class Hierarchy Descriptor'
PUBLIC	??_R2?$sparse_set@W4entity@entt@@@entt@@8	; entt::sparse_set<enum entt::entity>::`RTTI Base Class Array'
PUBLIC	??_R4?$storage@W4entity@entt@@UTransformComponent@Immortal@@X@entt@@6B@ ; entt::storage<enum entt::entity,Immortal::TransformComponent,void>::`RTTI Complete Object Locator'
PUBLIC	??_R4?$sparse_set@W4entity@entt@@@entt@@6B@	; entt::sparse_set<enum entt::entity>::`RTTI Complete Object Locator'
PUBLIC	__real@40000000
PUBLIC	__real@40a00000
EXTRN	??_M@YAXPEAX_K1P6AX0@Z@Z:PROC			; `eh vector destructor iterator'
EXTRN	??2@YAPEAX_K@Z:PROC				; operator new
EXTRN	??3@YAXPEAX_K@Z:PROC				; operator delete
EXTRN	??_V@YAXPEAX@Z:PROC				; operator delete[]
EXTRN	??_V@YAXPEAX_K@Z:PROC				; operator delete[]
EXTRN	_Init_thread_header:PROC
EXTRN	_Init_thread_footer:PROC
EXTRN	__imp__invalid_parameter:PROC
EXTRN	__imp__calloc_dbg:PROC
EXTRN	__imp__CrtDbgReport:PROC
EXTRN	__imp_??0_Lockit@std@@QEAA@H@Z:PROC
EXTRN	__imp_??1_Lockit@std@@QEAA@XZ:PROC
EXTRN	__std_exception_copy:PROC
EXTRN	__std_exception_destroy:PROC
EXTRN	??_Eexception@std@@UEAAPEAXI@Z:PROC		; std::exception::`vector deleting destructor'
EXTRN	??_Ebad_alloc@std@@UEAAPEAXI@Z:PROC		; std::bad_alloc::`vector deleting destructor'
EXTRN	??_Ebad_array_new_length@std@@UEAAPEAXI@Z:PROC	; std::bad_array_new_length::`vector deleting destructor'
EXTRN	memcpy:PROC
EXTRN	__imp_wcslen:PROC
EXTRN	strlen:PROC
EXTRN	?_Xbad_alloc@std@@YAXXZ:PROC			; std::_Xbad_alloc
EXTRN	?_Xlength_error@std@@YAXPEBD@Z:PROC		; std::_Xlength_error
EXTRN	__imp__wassert:PROC
EXTRN	_Mbrtowc:PROC
EXTRN	__imp_?_Getcvt@_Locinfo@std@@QEBA?AU_Cvtvec@@XZ:PROC
EXTRN	__imp_?_Getdays@_Locinfo@std@@QEBAPEBDXZ:PROC
EXTRN	__imp_?_Getmonths@_Locinfo@std@@QEBAPEBDXZ:PROC
EXTRN	__imp_?_W_Getdays@_Locinfo@std@@QEBAPEBGXZ:PROC
EXTRN	__imp_?_W_Getmonths@_Locinfo@std@@QEBAPEBGXZ:PROC
EXTRN	??_ECubeController@Immortal@@UEAAPEAXI@Z:PROC	; Immortal::CubeController::`vector deleting destructor'
EXTRN	??_E?$sparse_set@W4entity@entt@@@entt@@UEAAPEAXI@Z:PROC ; entt::sparse_set<enum entt::entity>::`vector deleting destructor'
EXTRN	??_E?$storage@W4entity@entt@@UTransformComponent@Immortal@@X@entt@@UEAAPEAXI@Z:PROC ; entt::storage<enum entt::entity,Immortal::TransformComponent,void>::`vector deleting destructor'
EXTRN	??_E?$pool_handler@UTransformComponent@Immortal@@@?$basic_registry@W4entity@entt@@@entt@@UEAAPEAXI@Z:PROC ; entt::basic_registry<enum entt::entity>::pool_handler<Immortal::TransformComponent>::`vector deleting destructor'
EXTRN	_CxxThrowException:PROC
EXTRN	_RTC_CheckStackVars:PROC
EXTRN	_RTC_InitBase:PROC
EXTRN	_RTC_Shutdown:PROC
EXTRN	__CheckForDebuggerJustMyCode:PROC
EXTRN	__CxxFrameHandler4:PROC
EXTRN	__GSHandlerCheck:PROC
EXTRN	__security_check_cookie:PROC
EXTRN	_Init_thread_epoch:DWORD
EXTRN	??_7type_info@@6B@:BYTE				; type_info::`vftable'
EXTRN	__security_cookie:QWORD
EXTRN	_fltused:DWORD
EXTRN	_tls_index:DWORD
;	COMDAT ?dragonbox_pow10_significands_128@?$basic_data@X@detail@v7@fmt@@2QBUuint128_wrapper@234@B
_BSS	SEGMENT
?dragonbox_pow10_significands_128@?$basic_data@X@detail@v7@fmt@@2QBUuint128_wrapper@234@B DB 0170H DUP (?) ; fmt::v7::detail::basic_data<void>::dragonbox_pow10_significands_128
_BSS	ENDS
_BSS	SEGMENT
?level_string_views@level@spdlog@@3PAV?$basic_string_view@D@v7@fmt@@A DB 070H DUP (?) ; spdlog::level::level_string_views
_BSS	ENDS
;	COMDAT ?value@?1??next@type_index@internal@entt@@SAIXZ@4IA
_BSS	SEGMENT
?value@?1??next@type_index@internal@entt@@SAIXZ@4IA DD 01H DUP (?) ; `entt::internal::type_index::next'::`2'::value
_BSS	ENDS
;	COMDAT ?value@?1??0?$type_index@UTransformComponent@Immortal@@X@entt@@SAIXZ@4IB
_BSS	SEGMENT
?value@?1??0?$type_index@UTransformComponent@Immortal@@X@entt@@SAIXZ@4IB DD 01H DUP (?) ; `entt::type_index<Immortal::TransformComponent,void>::value'::`2'::value
_BSS	ENDS
;	COMDAT ?$TSS0@?1??value@?$type_index@UTransformComponent@Immortal@@X@entt@@SAIXZ@4HA
_BSS	SEGMENT
?$TSS0@?1??value@?$type_index@UTransformComponent@Immortal@@X@entt@@SAIXZ@4HA DD 01H DUP (?) ; `entt::type_index<Immortal::TransformComponent,void>::value'::`2'::$TSS0
_BSS	ENDS
;	COMDAT pdata
pdata	SEGMENT
$pdata$??_H@YAXPEAX_K1P6APEAX0@Z@Z DD imagerel $LN7
	DD	imagerel $LN7+195
	DD	imagerel $unwind$??_H@YAXPEAX_K1P6APEAX0@Z@Z
pdata	ENDS
;	COMDAT pdata
pdata	SEGMENT
$pdata$?__empty_global_delete@@YAXPEAX@Z DD imagerel $LN3
	DD	imagerel $LN3+64
	DD	imagerel $unwind$?__empty_global_delete@@YAXPEAX@Z
pdata	ENDS
;	COMDAT pdata
pdata	SEGMENT
$pdata$?__empty_global_delete@@YAXPEAX_K@Z DD imagerel $LN3
	DD	imagerel $LN3+69
	DD	imagerel $unwind$?__empty_global_delete@@YAXPEAX_K@Z
pdata	ENDS
;	COMDAT pdata
pdata	SEGMENT
$pdata$?__empty_global_delete@@YAXPEAXW4align_val_t@std@@@Z DD imagerel $LN3
	DD	imagerel $LN3+69
	DD	imagerel $unwind$?__empty_global_delete@@YAXPEAXW4align_val_t@std@@@Z
pdata	ENDS
;	COMDAT pdata
pdata	SEGMENT
$pdata$?__empty_global_delete@@YAXPEAX_KW4align_val_t@std@@@Z DD imagerel $LN3
	DD	imagerel $LN3+74
	DD	imagerel $unwind$?__empty_global_delete@@YAXPEAX_KW4align_val_t@std@@@Z
pdata	ENDS
;	COMDAT pdata
pdata	SEGMENT
$pdata$??2@YAPEAX_KPEAX@Z DD imagerel $LN3
	DD	imagerel $LN3+76
	DD	imagerel $unwind$??2@YAPEAX_KPEAX@Z
pdata	ENDS
;	COMDAT pdata
pdata	SEGMENT
$pdata$??0exception@std@@QEAA@QEBDH@Z DD imagerel $LN3
	DD	imagerel $LN3+139
	DD	imagerel $unwind$??0exception@std@@QEAA@QEBDH@Z
pdata	ENDS
;	COMDAT pdata
pdata	SEGMENT
$pdata$??0exception@std@@QEAA@AEBV01@@Z DD imagerel $LN3
	DD	imagerel $LN3+146
	DD	imagerel $unwind$??0exception@std@@QEAA@AEBV01@@Z
pdata	ENDS
;	COMDAT pdata
pdata	SEGMENT
$pdata$??1exception@std@@UEAA@XZ DD imagerel $LN3
	DD	imagerel $LN3+100
	DD	imagerel $unwind$??1exception@std@@UEAA@XZ
pdata	ENDS
;	COMDAT pdata
pdata	SEGMENT
$pdata$?what@exception@std@@UEBAPEBDXZ DD imagerel $LN5
	DD	imagerel $LN5+119
	DD	imagerel $unwind$?what@exception@std@@UEBAPEBDXZ
pdata	ENDS
;	COMDAT pdata
pdata	SEGMENT
$pdata$??_Gexception@std@@UEAAPEAXI@Z DD imagerel $LN4
	DD	imagerel $LN4+105
	DD	imagerel $unwind$??_Gexception@std@@UEAAPEAXI@Z
pdata	ENDS
;	COMDAT pdata
pdata	SEGMENT
$pdata$??0bad_alloc@std@@AEAA@QEBD@Z DD imagerel $LN3
	DD	imagerel $LN3+118
	DD	imagerel $unwind$??0bad_alloc@std@@AEAA@QEBD@Z
pdata	ENDS
;	COMDAT pdata
pdata	SEGMENT
$pdata$??1bad_alloc@std@@UEAA@XZ DD imagerel $LN3
	DD	imagerel $LN3+64
	DD	imagerel $unwind$??1bad_alloc@std@@UEAA@XZ
pdata	ENDS
;	COMDAT pdata
pdata	SEGMENT
$pdata$??0bad_alloc@std@@QEAA@AEBV01@@Z DD imagerel $LN3
	DD	imagerel $LN3+100
	DD	imagerel $unwind$??0bad_alloc@std@@QEAA@AEBV01@@Z
pdata	ENDS
;	COMDAT pdata
pdata	SEGMENT
$pdata$??_Gbad_alloc@std@@UEAAPEAXI@Z DD imagerel $LN4
	DD	imagerel $LN4+105
	DD	imagerel $unwind$??_Gbad_alloc@std@@UEAAPEAXI@Z
pdata	ENDS
;	COMDAT pdata
pdata	SEGMENT
$pdata$??0bad_array_new_length@std@@QEAA@XZ DD imagerel $LN3
	DD	imagerel $LN3+107
	DD	imagerel $unwind$??0bad_array_new_length@std@@QEAA@XZ
pdata	ENDS
;	COMDAT pdata
pdata	SEGMENT
$pdata$??1bad_array_new_length@std@@UEAA@XZ DD imagerel $LN3
	DD	imagerel $LN3+64
	DD	imagerel $unwind$??1bad_array_new_length@std@@UEAA@XZ
pdata	ENDS
;	COMDAT pdata
pdata	SEGMENT
$pdata$??0bad_array_new_length@std@@QEAA@AEBV01@@Z DD imagerel $LN3
	DD	imagerel $LN3+100
	DD	imagerel $unwind$??0bad_array_new_length@std@@QEAA@AEBV01@@Z
pdata	ENDS
;	COMDAT pdata
pdata	SEGMENT
$pdata$??_Gbad_array_new_length@std@@UEAAPEAXI@Z DD imagerel $LN4
	DD	imagerel $LN4+105
	DD	imagerel $unwind$??_Gbad_array_new_length@std@@UEAAPEAXI@Z
pdata	ENDS
;	COMDAT pdata
pdata	SEGMENT
$pdata$?_Throw_bad_array_new_length@std@@YAXXZ DD imagerel $LN3
	DD	imagerel $LN3+83
	DD	imagerel $unwind$?_Throw_bad_array_new_length@std@@YAXXZ
pdata	ENDS
;	COMDAT pdata
pdata	SEGMENT
$pdata$wmemcpy DD imagerel $LN3
	DD	imagerel $LN3+106
	DD	imagerel $unwind$wmemcpy
pdata	ENDS
;	COMDAT pdata
pdata	SEGMENT
$pdata$?max@?$numeric_limits@_J@std@@SA_JXZ DD imagerel $LN3
	DD	imagerel $LN3+62
	DD	imagerel $unwind$?max@?$numeric_limits@_J@std@@SA_JXZ
pdata	ENDS
;	COMDAT pdata
pdata	SEGMENT
$pdata$?_Allocate@_Default_allocate_traits@std@@SAPEAX_K@Z DD imagerel $LN3
	DD	imagerel $LN3+76
	DD	imagerel $unwind$?_Allocate@_Default_allocate_traits@std@@SAPEAX_K@Z
pdata	ENDS
;	COMDAT pdata
pdata	SEGMENT
$pdata$?_Adjust_manually_vector_aligned@std@@YAXAEAPEAXAEA_K@Z DD imagerel $LN21
	DD	imagerel $LN21+476
	DD	imagerel $unwind$?_Adjust_manually_vector_aligned@std@@YAXAEAPEAXAEA_K@Z
pdata	ENDS
;	COMDAT pdata
pdata	SEGMENT
$pdata$??0_Container_proxy@std@@QEAA@PEAU_Container_base12@1@@Z DD imagerel $LN3
	DD	imagerel $LN3+108
	DD	imagerel $unwind$??0_Container_proxy@std@@QEAA@PEAU_Container_base12@1@@Z
pdata	ENDS
;	COMDAT pdata
pdata	SEGMENT
$pdata$??0_Container_base12@std@@QEAA@XZ DD imagerel $LN3
	DD	imagerel $LN3+85
	DD	imagerel $unwind$??0_Container_base12@std@@QEAA@XZ
pdata	ENDS
;	COMDAT pdata
pdata	SEGMENT
$pdata$?_Orphan_all@_Container_base12@std@@QEAAXXZ DD imagerel $LN7
	DD	imagerel $LN7+200
	DD	imagerel $unwind$?_Orphan_all@_Container_base12@std@@QEAAXXZ
pdata	ENDS
;	COMDAT pdata
pdata	SEGMENT
$pdata$?length@?$_Narrow_char_traits@DH@std@@SA_KQEBD@Z DD imagerel $LN4
	DD	imagerel $LN4+123
	DD	imagerel $unwind$?length@?$_Narrow_char_traits@DH@std@@SA_KQEBD@Z
pdata	ENDS
;	COMDAT pdata
pdata	SEGMENT
$pdata$??$_Maklocstr@_W@std@@YAPEA_WPEBDPEA_WAEBU_Cvtvec@@@Z DD imagerel $LN12
	DD	imagerel $LN12+552
	DD	imagerel $unwind$??$_Maklocstr@_W@std@@YAPEA_WPEBDPEA_WAEBU_Cvtvec@@@Z
pdata	ENDS
;	COMDAT pdata
pdata	SEGMENT
$pdata$?_Maklocwcs@std@@YAPEA_WPEB_W@Z DD imagerel $LN4
	DD	imagerel $LN4+165
	DD	imagerel $unwind$?_Maklocwcs@std@@YAPEA_WPEB_W@Z
pdata	ENDS
;	COMDAT pdata
pdata	SEGMENT
$pdata$??0?$basic_string_view@D@v7@fmt@@QEAA@PEBD@Z DD imagerel $LN3
	DD	imagerel $LN3+116
	DD	imagerel $unwind$??0?$basic_string_view@D@v7@fmt@@QEAA@PEBD@Z
pdata	ENDS
;	COMDAT pdata
pdata	SEGMENT
$pdata$??0uint128_wrapper@detail@v7@fmt@@QEAA@_K0@Z DD imagerel $LN3
	DD	imagerel $LN3+116
	DD	imagerel $unwind$??0uint128_wrapper@detail@v7@fmt@@QEAA@_K0@Z
pdata	ENDS
;	COMDAT pdata
pdata	SEGMENT
$pdata$??$_Getvals@_W@?$time_get@DV?$istreambuf_iterator@DU?$char_traits@D@std@@@std@@@std@@IEAAX_WAEBV_Locinfo@1@@Z DD imagerel $LN5
	DD	imagerel $LN5+411
	DD	imagerel $unwind$??$_Getvals@_W@?$time_get@DV?$istreambuf_iterator@DU?$char_traits@D@std@@@std@@@std@@IEAAX_WAEBV_Locinfo@1@@Z
pdata	ENDS
;	COMDAT pdata
pdata	SEGMENT
$pdata$??$_Getvals@_W@?$time_get@_WV?$istreambuf_iterator@_WU?$char_traits@_W@std@@@std@@@std@@IEAAX_WAEBV_Locinfo@1@@Z DD imagerel $LN5
	DD	imagerel $LN5+411
	DD	imagerel $unwind$??$_Getvals@_W@?$time_get@_WV?$istreambuf_iterator@_WU?$char_traits@_W@std@@@std@@@std@@IEAAX_WAEBV_Locinfo@1@@Z
pdata	ENDS
;	COMDAT pdata
pdata	SEGMENT
$pdata$??__Elevel_string_views@level@spdlog@@YAXXZ DD imagerel ??__Elevel_string_views@level@spdlog@@YAXXZ
	DD	imagerel ??__Elevel_string_views@level@spdlog@@YAXXZ+185
	DD	imagerel $unwind$??__Elevel_string_views@level@spdlog@@YAXXZ
pdata	ENDS
;	COMDAT pdata
pdata	SEGMENT
$pdata$??$min@_K@std@@YAAEB_KAEB_K0@Z DD imagerel $LN5
	DD	imagerel $LN5+142
	DD	imagerel $unwind$??$min@_K@std@@YAAEB_KAEB_K0@Z
pdata	ENDS
;	COMDAT pdata
pdata	SEGMENT
$pdata$?next@type_index@internal@entt@@SAIXZ DD imagerel $LN3
	DD	imagerel $LN3+84
	DD	imagerel $unwind$?next@type_index@internal@entt@@SAIXZ
pdata	ENDS
;	COMDAT pdata
pdata	SEGMENT
$pdata$?to_integral@entt@@YA@W4entity@1@@Z DD imagerel $LN3
	DD	imagerel $LN3+68
	DD	imagerel $unwind$?to_integral@entt@@YA@W4entity@1@@Z
pdata	ENDS
;	COMDAT pdata
pdata	SEGMENT
$pdata$?valid@?$basic_registry@W4entity@entt@@@entt@@QEBA_NW4entity@2@@Z DD imagerel $LN5
	DD	imagerel $LN5+188
	DD	imagerel $unwind$?valid@?$basic_registry@W4entity@entt@@@entt@@QEBA_NW4entity@2@@Z
pdata	ENDS
;	COMDAT pdata
pdata	SEGMENT
$pdata$?deallocate@?$allocator@Upool_data@?$basic_registry@W4entity@entt@@@entt@@@std@@QEAAXQEAUpool_data@?$basic_registry@W4entity@entt@@@entt@@_K@Z DD imagerel $LN3
	DD	imagerel $LN3+97
	DD	imagerel $unwind$?deallocate@?$allocator@Upool_data@?$basic_registry@W4entity@entt@@@entt@@@std@@QEAAXQEAUpool_data@?$basic_registry@W4entity@entt@@@entt@@_K@Z
pdata	ENDS
;	COMDAT pdata
pdata	SEGMENT
$pdata$?allocate@?$allocator@Upool_data@?$basic_registry@W4entity@entt@@@entt@@@std@@QEAAPEAUpool_data@?$basic_registry@W4entity@entt@@@entt@@_K@Z DD imagerel $LN3
	DD	imagerel $LN3+89
	DD	imagerel $unwind$?allocate@?$allocator@Upool_data@?$basic_registry@W4entity@entt@@@entt@@@std@@QEAAPEAUpool_data@?$basic_registry@W4entity@entt@@@entt@@_K@Z
pdata	ENDS
;	COMDAT pdata
pdata	SEGMENT
$pdata$?max_size@?$_Default_allocator_traits@V?$allocator@Upool_data@?$basic_registry@W4entity@entt@@@entt@@@std@@@std@@SA_KAEBV?$allocator@Upool_data@?$basic_registry@W4entity@entt@@@entt@@@2@@Z DD imagerel $LN3
	DD	imagerel $LN3+74
	DD	imagerel $unwind$?max_size@?$_Default_allocator_traits@V?$allocator@Upool_data@?$basic_registry@W4entity@entt@@@entt@@@std@@@std@@SA_KAEBV?$allocator@Upool_data@?$basic_registry@W4entity@entt@@@entt@@@2@@Z
pdata	ENDS
;	COMDAT pdata
pdata	SEGMENT
$pdata$?resize@?$vector@Upool_data@?$basic_registry@W4entity@entt@@@entt@@V?$allocator@Upool_data@?$basic_registry@W4entity@entt@@@entt@@@std@@@std@@QEAAX_K@Z DD imagerel $LN3
	DD	imagerel $LN3+95
	DD	imagerel $unwind$?resize@?$vector@Upool_data@?$basic_registry@W4entity@entt@@@entt@@V?$allocator@Upool_data@?$basic_registry@W4entity@entt@@@entt@@@std@@@std@@QEAAX_K@Z
pdata	ENDS
;	COMDAT pdata
pdata	SEGMENT
$pdata$?size@?$vector@Upool_data@?$basic_registry@W4entity@entt@@@entt@@V?$allocator@Upool_data@?$basic_registry@W4entity@entt@@@entt@@@std@@@std@@QEBA_KXZ DD imagerel $LN3
	DD	imagerel $LN3+104
	DD	imagerel $unwind$?size@?$vector@Upool_data@?$basic_registry@W4entity@entt@@@entt@@V?$allocator@Upool_data@?$basic_registry@W4entity@entt@@@entt@@@std@@@std@@QEBA_KXZ
pdata	ENDS
;	COMDAT pdata
pdata	SEGMENT
$pdata$?max_size@?$vector@Upool_data@?$basic_registry@W4entity@entt@@@entt@@V?$allocator@Upool_data@?$basic_registry@W4entity@entt@@@entt@@@std@@@std@@QEBA_KXZ DD imagerel $LN3
	DD	imagerel $LN3+125
	DD	imagerel $unwind$?max_size@?$vector@Upool_data@?$basic_registry@W4entity@entt@@@entt@@V?$allocator@Upool_data@?$basic_registry@W4entity@entt@@@entt@@@std@@@std@@QEBA_KXZ
pdata	ENDS
;	COMDAT pdata
pdata	SEGMENT
$pdata$?capacity@?$vector@Upool_data@?$basic_registry@W4entity@entt@@@entt@@V?$allocator@Upool_data@?$basic_registry@W4entity@entt@@@entt@@@std@@@std@@QEBA_KXZ DD imagerel $LN3
	DD	imagerel $LN3+104
	DD	imagerel $unwind$?capacity@?$vector@Upool_data@?$basic_registry@W4entity@entt@@@entt@@V?$allocator@Upool_data@?$basic_registry@W4entity@entt@@@entt@@@std@@@std@@QEBA_KXZ
pdata	ENDS
;	COMDAT pdata
pdata	SEGMENT
$pdata$??A?$vector@Upool_data@?$basic_registry@W4entity@entt@@@entt@@V?$allocator@Upool_data@?$basic_registry@W4entity@entt@@@entt@@@std@@@std@@QEAAAEAUpool_data@?$basic_registry@W4entity@entt@@@entt@@_K@Z DD imagerel $LN12
	DD	imagerel $LN12+253
	DD	imagerel $unwind$??A?$vector@Upool_data@?$basic_registry@W4entity@entt@@@entt@@V?$allocator@Upool_data@?$basic_registry@W4entity@entt@@@entt@@@std@@@std@@QEAAAEAUpool_data@?$basic_registry@W4entity@entt@@@entt@@_K@Z
pdata	ENDS
;	COMDAT pdata
pdata	SEGMENT
$pdata$?_Ufill@?$vector@Upool_data@?$basic_registry@W4entity@entt@@@entt@@V?$allocator@Upool_data@?$basic_registry@W4entity@entt@@@entt@@@std@@@std@@AEAAPEAUpool_data@?$basic_registry@W4entity@entt@@@entt@@PEAU345@_KU_Value_init_tag@2@@Z DD imagerel $LN3
	DD	imagerel $LN3+113
	DD	imagerel $unwind$?_Ufill@?$vector@Upool_data@?$basic_registry@W4entity@entt@@@entt@@V?$allocator@Upool_data@?$basic_registry@W4entity@entt@@@entt@@@std@@@std@@AEAAPEAUpool_data@?$basic_registry@W4entity@entt@@@entt@@PEAU345@_KU_Value_init_tag@2@@Z
pdata	ENDS
;	COMDAT pdata
pdata	SEGMENT
$pdata$?_Umove_if_noexcept1@?$vector@Upool_data@?$basic_registry@W4entity@entt@@@entt@@V?$allocator@Upool_data@?$basic_registry@W4entity@entt@@@entt@@@std@@@std@@AEAAXPEAUpool_data@?$basic_registry@W4entity@entt@@@entt@@00U?$integral_constant@_N$00@2@@Z DD imagerel $LN3
	DD	imagerel $LN3+120
	DD	imagerel $unwind$?_Umove_if_noexcept1@?$vector@Upool_data@?$basic_registry@W4entity@entt@@@entt@@V?$allocator@Upool_data@?$basic_registry@W4entity@entt@@@entt@@@std@@@std@@AEAAXPEAUpool_data@?$basic_registry@W4entity@entt@@@entt@@00U?$integral_constant@_N$00@2@@Z
pdata	ENDS
;	COMDAT pdata
pdata	SEGMENT
$pdata$?_Umove_if_noexcept@?$vector@Upool_data@?$basic_registry@W4entity@entt@@@entt@@V?$allocator@Upool_data@?$basic_registry@W4entity@entt@@@entt@@@std@@@std@@AEAAXPEAUpool_data@?$basic_registry@W4entity@entt@@@entt@@00@Z DD imagerel $LN3
	DD	imagerel $LN3+142
	DD	imagerel $unwind$?_Umove_if_noexcept@?$vector@Upool_data@?$basic_registry@W4entity@entt@@@entt@@V?$allocator@Upool_data@?$basic_registry@W4entity@entt@@@entt@@@std@@@std@@AEAAXPEAUpool_data@?$basic_registry@W4entity@entt@@@entt@@00@Z
pdata	ENDS
;	COMDAT pdata
pdata	SEGMENT
$pdata$?_Destroy@?$vector@Upool_data@?$basic_registry@W4entity@entt@@@entt@@V?$allocator@Upool_data@?$basic_registry@W4entity@entt@@@entt@@@std@@@std@@AEAAXPEAUpool_data@?$basic_registry@W4entity@entt@@@entt@@0@Z DD imagerel $LN3
	DD	imagerel $LN3+108
	DD	imagerel $unwind$?_Destroy@?$vector@Upool_data@?$basic_registry@W4entity@entt@@@entt@@V?$allocator@Upool_data@?$basic_registry@W4entity@entt@@@entt@@@std@@@std@@AEAAXPEAUpool_data@?$basic_registry@W4entity@entt@@@entt@@0@Z
pdata	ENDS
;	COMDAT pdata
pdata	SEGMENT
$pdata$?_Calculate_growth@?$vector@Upool_data@?$basic_registry@W4entity@entt@@@entt@@V?$allocator@Upool_data@?$basic_registry@W4entity@entt@@@entt@@@std@@@std@@AEBA_K_K@Z DD imagerel $LN5
	DD	imagerel $LN5+191
	DD	imagerel $unwind$?_Calculate_growth@?$vector@Upool_data@?$basic_registry@W4entity@entt@@@entt@@V?$allocator@Upool_data@?$basic_registry@W4entity@entt@@@entt@@@std@@@std@@AEBA_K_K@Z
pdata	ENDS
;	COMDAT pdata
pdata	SEGMENT
$pdata$?_Change_array@?$vector@Upool_data@?$basic_registry@W4entity@entt@@@entt@@V?$allocator@Upool_data@?$basic_registry@W4entity@entt@@@entt@@@std@@@std@@AEAAXQEAUpool_data@?$basic_registry@W4entity@entt@@@entt@@_K1@Z DD imagerel $LN4
	DD	imagerel $LN4+334
	DD	imagerel $unwind$?_Change_array@?$vector@Upool_data@?$basic_registry@W4entity@entt@@@entt@@V?$allocator@Upool_data@?$basic_registry@W4entity@entt@@@entt@@@std@@@std@@AEAAXQEAUpool_data@?$basic_registry@W4entity@entt@@@entt@@_K1@Z
pdata	ENDS
;	COMDAT pdata
pdata	SEGMENT
$pdata$?_Xlength@?$vector@Upool_data@?$basic_registry@W4entity@entt@@@entt@@V?$allocator@Upool_data@?$basic_registry@W4entity@entt@@@entt@@@std@@@std@@CAXXZ DD imagerel $LN3
	DD	imagerel $LN3+64
	DD	imagerel $unwind$?_Xlength@?$vector@Upool_data@?$basic_registry@W4entity@entt@@@entt@@V?$allocator@Upool_data@?$basic_registry@W4entity@entt@@@entt@@@std@@@std@@CAXXZ
pdata	ENDS
;	COMDAT pdata
pdata	SEGMENT
$pdata$?_Orphan_range@?$vector@Upool_data@?$basic_registry@W4entity@entt@@@entt@@V?$allocator@Upool_data@?$basic_registry@W4entity@entt@@@entt@@@std@@@std@@AEBAXPEAUpool_data@?$basic_registry@W4entity@entt@@@entt@@0@Z DD imagerel $LN9
	DD	imagerel $LN9+235
	DD	imagerel $unwind$?_Orphan_range@?$vector@Upool_data@?$basic_registry@W4entity@entt@@@entt@@V?$allocator@Upool_data@?$basic_registry@W4entity@entt@@@entt@@@std@@@std@@AEBAXPEAUpool_data@?$basic_registry@W4entity@entt@@@entt@@0@Z
pdata	ENDS
;	COMDAT pdata
pdata	SEGMENT
$pdata$?_Getal@?$vector@Upool_data@?$basic_registry@W4entity@entt@@@entt@@V?$allocator@Upool_data@?$basic_registry@W4entity@entt@@@entt@@@std@@@std@@AEAAAEAV?$allocator@Upool_data@?$basic_registry@W4entity@entt@@@entt@@@2@XZ DD imagerel $LN3
	DD	imagerel $LN3+79
	DD	imagerel $unwind$?_Getal@?$vector@Upool_data@?$basic_registry@W4entity@entt@@@entt@@V?$allocator@Upool_data@?$basic_registry@W4entity@entt@@@entt@@@std@@@std@@AEAAAEAV?$allocator@Upool_data@?$basic_registry@W4entity@entt@@@entt@@@2@XZ
pdata	ENDS
;	COMDAT pdata
pdata	SEGMENT
$pdata$?_Getal@?$vector@Upool_data@?$basic_registry@W4entity@entt@@@entt@@V?$allocator@Upool_data@?$basic_registry@W4entity@entt@@@entt@@@std@@@std@@AEBAAEBV?$allocator@Upool_data@?$basic_registry@W4entity@entt@@@entt@@@2@XZ DD imagerel $LN3
	DD	imagerel $LN3+79
	DD	imagerel $unwind$?_Getal@?$vector@Upool_data@?$basic_registry@W4entity@entt@@@entt@@V?$allocator@Upool_data@?$basic_registry@W4entity@entt@@@entt@@@std@@@std@@AEBAAEBV?$allocator@Upool_data@?$basic_registry@W4entity@entt@@@entt@@@2@XZ
pdata	ENDS
;	COMDAT pdata
pdata	SEGMENT
$pdata$?_Get_first@?$_Compressed_pair@V?$allocator@Upool_data@?$basic_registry@W4entity@entt@@@entt@@@std@@V?$_Vector_val@U?$_Simple_types@Upool_data@?$basic_registry@W4entity@entt@@@entt@@@std@@@2@$00@std@@QEAAAEAV?$allocator@Upool_data@?$basic_registry@W4entity@entt@@@entt@@@2@XZ DD imagerel $LN3
	DD	imagerel $LN3+71
	DD	imagerel $unwind$?_Get_first@?$_Compressed_pair@V?$allocator@Upool_data@?$basic_registry@W4entity@entt@@@entt@@@std@@V?$_Vector_val@U?$_Simple_types@Upool_data@?$basic_registry@W4entity@entt@@@entt@@@std@@@2@$00@std@@QEAAAEAV?$allocator@Upool_data@?$basic_registry@W4entity@entt@@@entt@@@2@XZ
pdata	ENDS
;	COMDAT pdata
pdata	SEGMENT
$pdata$?_Get_first@?$_Compressed_pair@V?$allocator@Upool_data@?$basic_registry@W4entity@entt@@@entt@@@std@@V?$_Vector_val@U?$_Simple_types@Upool_data@?$basic_registry@W4entity@entt@@@entt@@@std@@@2@$00@std@@QEBAAEBV?$allocator@Upool_data@?$basic_registry@W4entity@entt@@@entt@@@2@XZ DD imagerel $LN3
	DD	imagerel $LN3+71
	DD	imagerel $unwind$?_Get_first@?$_Compressed_pair@V?$allocator@Upool_data@?$basic_registry@W4entity@entt@@@entt@@@std@@V?$_Vector_val@U?$_Simple_types@Upool_data@?$basic_registry@W4entity@entt@@@entt@@@std@@@2@$00@std@@QEBAAEBV?$allocator@Upool_data@?$basic_registry@W4entity@entt@@@entt@@@2@XZ
pdata	ENDS
;	COMDAT pdata
pdata	SEGMENT
$pdata$??0?$allocator@W4entity@entt@@@std@@QEAA@XZ DD imagerel $LN3
	DD	imagerel $LN3+71
	DD	imagerel $unwind$??0?$allocator@W4entity@entt@@@std@@QEAA@XZ
pdata	ENDS
;	COMDAT pdata
pdata	SEGMENT
$pdata$?deallocate@?$allocator@W4entity@entt@@@std@@QEAAXQEAW4entity@entt@@_K@Z DD imagerel $LN3
	DD	imagerel $LN3+100
	DD	imagerel $unwind$?deallocate@?$allocator@W4entity@entt@@@std@@QEAAXQEAW4entity@entt@@_K@Z
pdata	ENDS
;	COMDAT pdata
pdata	SEGMENT
$pdata$??0?$vector@W4entity@entt@@V?$allocator@W4entity@entt@@@std@@@std@@QEAA@XZ DD imagerel $LN3
	DD	imagerel $LN3+160
	DD	imagerel $unwind$??0?$vector@W4entity@entt@@V?$allocator@W4entity@entt@@@std@@@std@@QEAA@XZ
pdata	ENDS
;	COMDAT pdata
pdata	SEGMENT
$pdata$??1?$vector@W4entity@entt@@V?$allocator@W4entity@entt@@@std@@@std@@QEAA@XZ DD imagerel $LN3
	DD	imagerel $LN3+169
	DD	imagerel $unwind$??1?$vector@W4entity@entt@@V?$allocator@W4entity@entt@@@std@@@std@@QEAA@XZ
pdata	ENDS
;	COMDAT pdata
pdata	SEGMENT
$pdata$?pop_back@?$vector@W4entity@entt@@V?$allocator@W4entity@entt@@@std@@@std@@QEAAXXZ DD imagerel $LN12
	DD	imagerel $LN12+338
	DD	imagerel $unwind$?pop_back@?$vector@W4entity@entt@@V?$allocator@W4entity@entt@@@std@@@std@@QEAAXXZ
pdata	ENDS
;	COMDAT pdata
pdata	SEGMENT
$pdata$?size@?$vector@W4entity@entt@@V?$allocator@W4entity@entt@@@std@@@std@@QEBA_KXZ DD imagerel $LN3
	DD	imagerel $LN3+98
	DD	imagerel $unwind$?size@?$vector@W4entity@entt@@V?$allocator@W4entity@entt@@@std@@@std@@QEBA_KXZ
pdata	ENDS
;	COMDAT pdata
pdata	SEGMENT
$pdata$??A?$vector@W4entity@entt@@V?$allocator@W4entity@entt@@@std@@@std@@QEAAAEAW4entity@entt@@_K@Z DD imagerel $LN12
	DD	imagerel $LN12+250
	DD	imagerel $unwind$??A?$vector@W4entity@entt@@V?$allocator@W4entity@entt@@@std@@@std@@QEAAAEAW4entity@entt@@_K@Z
pdata	ENDS
;	COMDAT pdata
pdata	SEGMENT
$pdata$??A?$vector@W4entity@entt@@V?$allocator@W4entity@entt@@@std@@@std@@QEBAAEBW4entity@entt@@_K@Z DD imagerel $LN12
	DD	imagerel $LN12+250
	DD	imagerel $unwind$??A?$vector@W4entity@entt@@V?$allocator@W4entity@entt@@@std@@@std@@QEBAAEBW4entity@entt@@_K@Z
pdata	ENDS
;	COMDAT pdata
pdata	SEGMENT
$pdata$?back@?$vector@W4entity@entt@@V?$allocator@W4entity@entt@@@std@@@std@@QEAAAEAW4entity@entt@@XZ DD imagerel $LN12
	DD	imagerel $LN12+229
	DD	imagerel $unwind$?back@?$vector@W4entity@entt@@V?$allocator@W4entity@entt@@@std@@@std@@QEAAAEAW4entity@entt@@XZ
pdata	ENDS
;	COMDAT pdata
pdata	SEGMENT
$pdata$?_Destroy@?$vector@W4entity@entt@@V?$allocator@W4entity@entt@@@std@@@std@@AEAAXPEAW4entity@entt@@0@Z DD imagerel $LN3
	DD	imagerel $LN3+108
	DD	imagerel $unwind$?_Destroy@?$vector@W4entity@entt@@V?$allocator@W4entity@entt@@@std@@@std@@AEAAXPEAW4entity@entt@@0@Z
pdata	ENDS
;	COMDAT pdata
pdata	SEGMENT
$pdata$?_Tidy@?$vector@W4entity@entt@@V?$allocator@W4entity@entt@@@std@@@std@@AEAAXXZ DD imagerel $LN4
	DD	imagerel $LN4+280
	DD	imagerel $unwind$?_Tidy@?$vector@W4entity@entt@@V?$allocator@W4entity@entt@@@std@@@std@@AEAAXXZ
pdata	ENDS
;	COMDAT pdata
pdata	SEGMENT
$pdata$?_Orphan_range@?$vector@W4entity@entt@@V?$allocator@W4entity@entt@@@std@@@std@@AEBAXPEAW4entity@entt@@0@Z DD imagerel $LN9
	DD	imagerel $LN9+235
	DD	imagerel $unwind$?_Orphan_range@?$vector@W4entity@entt@@V?$allocator@W4entity@entt@@@std@@@std@@AEBAXPEAW4entity@entt@@0@Z
pdata	ENDS
;	COMDAT pdata
pdata	SEGMENT
$pdata$?_Getal@?$vector@W4entity@entt@@V?$allocator@W4entity@entt@@@std@@@std@@AEAAAEAV?$allocator@W4entity@entt@@@2@XZ DD imagerel $LN3
	DD	imagerel $LN3+79
	DD	imagerel $unwind$?_Getal@?$vector@W4entity@entt@@V?$allocator@W4entity@entt@@@std@@@std@@AEAAAEAV?$allocator@W4entity@entt@@@2@XZ
pdata	ENDS
;	COMDAT pdata
pdata	SEGMENT
$pdata$??0?$_Vector_val@U?$_Simple_types@W4entity@entt@@@std@@@std@@QEAA@XZ DD imagerel $LN3
	DD	imagerel $LN3+128
	DD	imagerel $unwind$??0?$_Vector_val@U?$_Simple_types@W4entity@entt@@@std@@@std@@QEAA@XZ
pdata	ENDS
;	COMDAT pdata
pdata	SEGMENT
$pdata$?_Get_first@?$_Compressed_pair@V?$allocator@W4entity@entt@@@std@@V?$_Vector_val@U?$_Simple_types@W4entity@entt@@@std@@@2@$00@std@@QEAAAEAV?$allocator@W4entity@entt@@@2@XZ DD imagerel $LN3
	DD	imagerel $LN3+71
	DD	imagerel $unwind$?_Get_first@?$_Compressed_pair@V?$allocator@W4entity@entt@@@std@@V?$_Vector_val@U?$_Simple_types@W4entity@entt@@@std@@@2@$00@std@@QEAAAEAV?$allocator@W4entity@entt@@@2@XZ
pdata	ENDS
;	COMDAT pdata
pdata	SEGMENT
$pdata$??0Entity@Immortal@@QEAA@XZ DD imagerel $LN3
	DD	imagerel $LN3+107
	DD	imagerel $unwind$??0Entity@Immortal@@QEAA@XZ
pdata	ENDS
;	COMDAT pdata
pdata	SEGMENT
$pdata$??1Entity@Immortal@@QEAA@XZ DD imagerel $LN3
	DD	imagerel $LN3+64
	DD	imagerel $unwind$??1Entity@Immortal@@QEAA@XZ
pdata	ENDS
;	COMDAT pdata
pdata	SEGMENT
$pdata$??$?BW4entity@entt@@@null@internal@entt@@QEBA?AW4entity@2@XZ DD imagerel $LN3
	DD	imagerel $LN3+69
	DD	imagerel $unwind$??$?BW4entity@entt@@@null@internal@entt@@QEBA?AW4entity@2@XZ
pdata	ENDS
;	COMDAT pdata
pdata	SEGMENT
$pdata$??$GetComponent@UTransformComponent@Immortal@@@Entity@Immortal@@QEBAAEAUTransformComponent@1@XZ DD imagerel $LN3
	DD	imagerel $LN3+107
	DD	imagerel $unwind$??$GetComponent@UTransformComponent@Immortal@@@Entity@Immortal@@QEBAAEAUTransformComponent@1@XZ
pdata	ENDS
;	COMDAT pdata
pdata	SEGMENT
$pdata$??1ScriptableObject@Immortal@@UEAA@XZ DD imagerel $LN3
	DD	imagerel $LN3+100
	DD	imagerel $unwind$??1ScriptableObject@Immortal@@UEAA@XZ
pdata	ENDS
;	COMDAT pdata
pdata	SEGMENT
$pdata$?OnStart@ScriptableObject@Immortal@@MEAAXXZ DD imagerel $LN3
	DD	imagerel $LN3+64
	DD	imagerel $unwind$?OnStart@ScriptableObject@Immortal@@MEAAXXZ
pdata	ENDS
;	COMDAT pdata
pdata	SEGMENT
$pdata$?OnDestroy@ScriptableObject@Immortal@@MEAAXXZ DD imagerel $LN3
	DD	imagerel $LN3+64
	DD	imagerel $unwind$?OnDestroy@ScriptableObject@Immortal@@MEAAXXZ
pdata	ENDS
;	COMDAT pdata
pdata	SEGMENT
$pdata$?OnUpdate@ScriptableObject@Immortal@@MEAAXXZ DD imagerel $LN3
	DD	imagerel $LN3+64
	DD	imagerel $unwind$?OnUpdate@ScriptableObject@Immortal@@MEAAXXZ
pdata	ENDS
;	COMDAT pdata
pdata	SEGMENT
$pdata$??0ScriptableObject@Immortal@@QEAA@XZ DD imagerel $LN3
	DD	imagerel $LN3+95
	DD	imagerel $unwind$??0ScriptableObject@Immortal@@QEAA@XZ
pdata	ENDS
;	COMDAT pdata
pdata	SEGMENT
$pdata$??0ScriptableObject@Immortal@@QEAA@AEBV01@@Z DD imagerel $LN3
	DD	imagerel $LN3+110
	DD	imagerel $unwind$??0ScriptableObject@Immortal@@QEAA@AEBV01@@Z
pdata	ENDS
;	COMDAT pdata
pdata	SEGMENT
$pdata$??4ScriptableObject@Immortal@@QEAAAEAV01@AEBV01@@Z DD imagerel $LN3
	DD	imagerel $LN3+93
	DD	imagerel $unwind$??4ScriptableObject@Immortal@@QEAAAEAV01@AEBV01@@Z
pdata	ENDS
;	COMDAT pdata
pdata	SEGMENT
$pdata$??_GScriptableObject@Immortal@@UEAAPEAXI@Z DD imagerel $LN4
	DD	imagerel $LN4+105
	DD	imagerel $unwind$??_GScriptableObject@Immortal@@UEAAPEAXI@Z
pdata	ENDS
;	COMDAT pdata
pdata	SEGMENT
$pdata$??_EScriptableObject@Immortal@@UEAAPEAXI@Z DD imagerel $LN6
	DD	imagerel $LN6+214
	DD	imagerel $unwind$??_EScriptableObject@Immortal@@UEAAPEAXI@Z
pdata	ENDS
;	COMDAT pdata
pdata	SEGMENT
$pdata$?DeltaTime@Timestep@Immortal@@QEBAMXZ DD imagerel $LN3
	DD	imagerel $LN3+75
	DD	imagerel $unwind$?DeltaTime@Timestep@Immortal@@QEBAMXZ
pdata	ENDS
;	COMDAT pdata
pdata	SEGMENT
$pdata$?IsKeyPressed@Application@Immortal@@SA_NW4KeyCode@2@@Z DD imagerel $LN3
	DD	imagerel $LN3+128
	DD	imagerel $unwind$?IsKeyPressed@Application@Immortal@@SA_NW4KeyCode@2@@Z
pdata	ENDS
;	COMDAT pdata
pdata	SEGMENT
$pdata$?DeltaTime@Application@Immortal@@SAMXZ DD imagerel $LN3
	DD	imagerel $LN3+73
	DD	imagerel $unwind$?DeltaTime@Application@Immortal@@SAMXZ
pdata	ENDS
;	COMDAT pdata
pdata	SEGMENT
$pdata$?OnStart@CubeController@Immortal@@UEAAXXZ DD imagerel $LN3
	DD	imagerel $LN3+64
	DD	imagerel $unwind$?OnStart@CubeController@Immortal@@UEAAXXZ
pdata	ENDS
;	COMDAT pdata
pdata	SEGMENT
$pdata$?OnDestroy@CubeController@Immortal@@UEAAXXZ DD imagerel $LN3
	DD	imagerel $LN3+64
	DD	imagerel $unwind$?OnDestroy@CubeController@Immortal@@UEAAXXZ
pdata	ENDS
;	COMDAT pdata
pdata	SEGMENT
$pdata$?OnUpdate@CubeController@Immortal@@UEAAXXZ DD imagerel $LN7
	DD	imagerel $LN7+382
	DD	imagerel $unwind$?OnUpdate@CubeController@Immortal@@UEAAXXZ
pdata	ENDS
;	COMDAT pdata
pdata	SEGMENT
$pdata$??0CubeController@Immortal@@QEAA@XZ DD imagerel $LN3
	DD	imagerel $LN3+88
	DD	imagerel $unwind$??0CubeController@Immortal@@QEAA@XZ
pdata	ENDS
;	COMDAT pdata
pdata	SEGMENT
$pdata$??1CubeController@Immortal@@UEAA@XZ DD imagerel $LN3
	DD	imagerel $LN3+64
	DD	imagerel $unwind$??1CubeController@Immortal@@UEAA@XZ
pdata	ENDS
;	COMDAT pdata
pdata	SEGMENT
$pdata$??_GCubeController@Immortal@@UEAAPEAXI@Z DD imagerel $LN4
	DD	imagerel $LN4+105
	DD	imagerel $unwind$??_GCubeController@Immortal@@UEAAPEAXI@Z
pdata	ENDS
;	COMDAT pdata
pdata	SEGMENT
$pdata$??$GetComponent@UTransformComponent@Immortal@@@ScriptableObject@Immortal@@QEAAAEAUTransformComponent@1@XZ DD imagerel $LN3
	DD	imagerel $LN3+83
	DD	imagerel $unwind$??$GetComponent@UTransformComponent@Immortal@@@ScriptableObject@Immortal@@QEAAAEAUTransformComponent@1@XZ
pdata	ENDS
;	COMDAT pdata
pdata	SEGMENT
$pdata$GetCubeController DD imagerel $LN5
	DD	imagerel $LN5+134
	DD	imagerel $unwind$GetCubeController
pdata	ENDS
;	COMDAT pdata
pdata	SEGMENT
$pdata$GetApplication DD imagerel $LN3
	DD	imagerel $LN3+59
	DD	imagerel $unwind$GetApplication
pdata	ENDS
;	COMDAT pdata
pdata	SEGMENT
$pdata$?allocate@?$allocator@U_Container_proxy@std@@@std@@QEAAPEAU_Container_proxy@2@_K@Z DD imagerel $LN3
	DD	imagerel $LN3+89
	DD	imagerel $unwind$?allocate@?$allocator@U_Container_proxy@std@@@std@@QEAAPEAU_Container_proxy@2@_K@Z
pdata	ENDS
;	COMDAT pdata
pdata	SEGMENT
$pdata$??$exchange@PEAU_Container_proxy@std@@$$T@std@@YAPEAU_Container_proxy@0@AEAPEAU10@$$QEA$$T@Z DD imagerel $LN3
	DD	imagerel $LN3+107
	DD	imagerel $unwind$??$exchange@PEAU_Container_proxy@std@@$$T@std@@YAPEAU_Container_proxy@0@AEAPEAU10@$$QEA$$T@Z
pdata	ENDS
;	COMDAT pdata
pdata	SEGMENT
$pdata$??$_Delete_plain_internal@V?$allocator@U_Container_proxy@std@@@std@@@std@@YAXAEAV?$allocator@U_Container_proxy@std@@@0@QEAU_Container_proxy@0@@Z DD imagerel $LN3
	DD	imagerel $LN3+88
	DD	imagerel $unwind$??$_Delete_plain_internal@V?$allocator@U_Container_proxy@std@@@std@@@std@@YAXAEAV?$allocator@U_Container_proxy@std@@@0@QEAU_Container_proxy@0@@Z
pdata	ENDS
;	COMDAT pdata
pdata	SEGMENT
$pdata$??$_Alloc_proxy@V?$allocator@U_Container_proxy@std@@@std@@@_Container_base12@std@@QEAAX$$QEAV?$allocator@U_Container_proxy@std@@@1@@Z DD imagerel $LN3
	DD	imagerel $LN3+156
	DD	imagerel $unwind$??$_Alloc_proxy@V?$allocator@U_Container_proxy@std@@@std@@@_Container_base12@std@@QEAAX$$QEAV?$allocator@U_Container_proxy@std@@@1@@Z
pdata	ENDS
;	COMDAT pdata
pdata	SEGMENT
$pdata$??$_Unfancy@U_Container_proxy@std@@@std@@YAPEAU_Container_proxy@0@PEAU10@@Z DD imagerel $LN3
	DD	imagerel $LN3+71
	DD	imagerel $unwind$??$_Unfancy@U_Container_proxy@std@@@std@@YAPEAU_Container_proxy@0@PEAU10@@Z
pdata	ENDS
;	COMDAT pdata
pdata	SEGMENT
$pdata$??$_Construct_in_place@U_Container_proxy@std@@PEAU_Container_base12@2@@std@@YAXAEAU_Container_proxy@0@$$QEAPEAU_Container_base12@0@@Z DD imagerel $LN3
	DD	imagerel $LN3+150
	DD	imagerel $unwind$??$_Construct_in_place@U_Container_proxy@std@@PEAU_Container_base12@2@@std@@YAXAEAU_Container_proxy@0@$$QEAPEAU_Container_base12@0@@Z
pdata	ENDS
;	COMDAT pdata
pdata	SEGMENT
$pdata$??$_Get_size_of_n@$0BA@@std@@YA_K_K@Z DD imagerel $LN4
	DD	imagerel $LN4+114
	DD	imagerel $unwind$??$_Get_size_of_n@$0BA@@std@@YA_K_K@Z
pdata	ENDS
;	COMDAT pdata
pdata	SEGMENT
$pdata$??$_Allocate@$0BA@U_Default_allocate_traits@std@@$0A@@std@@YAPEAX_K@Z DD imagerel $LN5
	DD	imagerel $LN5+117
	DD	imagerel $unwind$??$_Allocate@$0BA@U_Default_allocate_traits@std@@$0A@@std@@YAPEAX_K@Z
pdata	ENDS
;	COMDAT pdata
pdata	SEGMENT
$pdata$??$_Deallocate@$0BA@$0A@@std@@YAXPEAX_K@Z DD imagerel $LN4
	DD	imagerel $LN4+121
	DD	imagerel $unwind$??$_Deallocate@$0BA@$0A@@std@@YAXPEAX_K@Z
pdata	ENDS
;	COMDAT pdata
pdata	SEGMENT
$pdata$??__E?dragonbox_pow10_significands_128@?$basic_data@X@detail@v7@fmt@@2QBUuint128_wrapper@234@B@@YAXXZ DD imagerel ??__E?dragonbox_pow10_significands_128@?$basic_data@X@detail@v7@fmt@@2QBUuint128_wrapper@234@B@@YAXXZ
	DD	imagerel ??__E?dragonbox_pow10_significands_128@?$basic_data@X@detail@v7@fmt@@2QBUuint128_wrapper@234@B@@YAXXZ+781
	DD	imagerel $unwind$??__E?dragonbox_pow10_significands_128@?$basic_data@X@detail@v7@fmt@@2QBUuint128_wrapper@234@B@@YAXXZ
pdata	ENDS
;	COMDAT pdata
pdata	SEGMENT
$pdata$??$_Maklocstr@D@std@@YAPEADPEBDPEADAEBU_Cvtvec@@@Z DD imagerel $LN7
	DD	imagerel $LN7+223
	DD	imagerel $unwind$??$_Maklocstr@D@std@@YAPEADPEBDPEADAEBU_Cvtvec@@@Z
pdata	ENDS
;	COMDAT pdata
pdata	SEGMENT
$pdata$??$get@UTransformComponent@Immortal@@@?$basic_registry@W4entity@entt@@@entt@@QEAA@W4entity@1@@Z DD imagerel $LN4
	DD	imagerel $LN4+158
	DD	imagerel $unwind$??$get@UTransformComponent@Immortal@@@?$basic_registry@W4entity@entt@@@entt@@QEAA@W4entity@1@@Z
pdata	ENDS
;	COMDAT pdata
pdata	SEGMENT
$pdata$??$assure@UTransformComponent@Immortal@@@?$basic_registry@W4entity@entt@@@entt@@AEAAAEAU?$pool_handler@UTransformComponent@Immortal@@@01@XZ DD imagerel $LN3
	DD	imagerel $LN3+84
	DD	imagerel $unwind$??$assure@UTransformComponent@Immortal@@@?$basic_registry@W4entity@entt@@@entt@@AEAAAEAU?$pool_handler@UTransformComponent@Immortal@@@01@XZ
pdata	ENDS
;	COMDAT pdata
pdata	SEGMENT
$pdata$??$assure@UTransformComponent@Immortal@@@?$basic_registry@W4entity@entt@@@entt@@AEBAAEBU?$pool_handler@UTransformComponent@Immortal@@@01@XZ DD imagerel $LN7
	DD	imagerel $LN7+421
	DD	imagerel $unwind$??$assure@UTransformComponent@Immortal@@@?$basic_registry@W4entity@entt@@@entt@@AEBAAEBU?$pool_handler@UTransformComponent@Immortal@@@01@XZ
pdata	ENDS
;	COMDAT pdata
pdata	SEGMENT
$pdata$?page@?$sparse_set@W4entity@entt@@@entt@@AEBA@W4entity@2@@Z DD imagerel $LN3
	DD	imagerel $LN3+96
	DD	imagerel $unwind$?page@?$sparse_set@W4entity@entt@@@entt@@AEBA@W4entity@2@@Z
pdata	ENDS
;	COMDAT pdata
pdata	SEGMENT
$pdata$?offset@?$sparse_set@W4entity@entt@@@entt@@AEBA@W4entity@2@@Z DD imagerel $LN3
	DD	imagerel $LN3+87
	DD	imagerel $unwind$?offset@?$sparse_set@W4entity@entt@@@entt@@AEBA@W4entity@2@@Z
pdata	ENDS
;	COMDAT pdata
pdata	SEGMENT
$pdata$??0?$sparse_set@W4entity@entt@@@entt@@QEAA@XZ DD imagerel $LN3
	DD	imagerel $LN3+126
	DD	imagerel $unwind$??0?$sparse_set@W4entity@entt@@@entt@@QEAA@XZ
pdata	ENDS
;	COMDAT pdata
pdata	SEGMENT
$pdata$??1?$sparse_set@W4entity@entt@@@entt@@UEAA@XZ DD imagerel $LN3
	DD	imagerel $LN3+102
	DD	imagerel $unwind$??1?$sparse_set@W4entity@entt@@@entt@@UEAA@XZ
pdata	ENDS
;	COMDAT pdata
pdata	SEGMENT
$pdata$?contains@?$sparse_set@W4entity@entt@@@entt@@QEBA_NW4entity@2@@Z DD imagerel $LN5
	DD	imagerel $LN5+332
	DD	imagerel $unwind$?contains@?$sparse_set@W4entity@entt@@@entt@@QEBA_NW4entity@2@@Z
pdata	ENDS
;	COMDAT pdata
pdata	SEGMENT
$pdata$?index@?$sparse_set@W4entity@entt@@@entt@@QEBA_KW4entity@2@@Z DD imagerel $LN4
	DD	imagerel $LN4+225
	DD	imagerel $unwind$?index@?$sparse_set@W4entity@entt@@@entt@@QEBA_KW4entity@2@@Z
pdata	ENDS
;	COMDAT pdata
pdata	SEGMENT
$pdata$?erase@?$sparse_set@W4entity@entt@@@entt@@QEAAXW4entity@2@@Z DD imagerel $LN4
	DD	imagerel $LN4+598
	DD	imagerel $unwind$?erase@?$sparse_set@W4entity@entt@@@entt@@QEAAXW4entity@2@@Z
pdata	ENDS
;	COMDAT pdata
pdata	SEGMENT
$pdata$?swap@?$sparse_set@W4entity@entt@@@entt@@UEAAXW4entity@2@0@Z DD imagerel $LN3
	DD	imagerel $LN3+407
	DD	imagerel $unwind$?swap@?$sparse_set@W4entity@entt@@@entt@@UEAAXW4entity@2@0@Z
pdata	ENDS
;	COMDAT pdata
pdata	SEGMENT
$pdata$??0?$allocator@V?$unique_ptr@$$BY0A@W4entity@entt@@U?$default_delete@$$BY0A@W4entity@entt@@@std@@@std@@@std@@QEAA@XZ DD imagerel $LN3
	DD	imagerel $LN3+71
	DD	imagerel $unwind$??0?$allocator@V?$unique_ptr@$$BY0A@W4entity@entt@@U?$default_delete@$$BY0A@W4entity@entt@@@std@@@std@@@std@@QEAA@XZ
pdata	ENDS
;	COMDAT pdata
pdata	SEGMENT
$pdata$?deallocate@?$allocator@V?$unique_ptr@$$BY0A@W4entity@entt@@U?$default_delete@$$BY0A@W4entity@entt@@@std@@@std@@@std@@QEAAXQEAV?$unique_ptr@$$BY0A@W4entity@entt@@U?$default_delete@$$BY0A@W4entity@entt@@@std@@@2@_K@Z DD imagerel $LN3
	DD	imagerel $LN3+100
	DD	imagerel $unwind$?deallocate@?$allocator@V?$unique_ptr@$$BY0A@W4entity@entt@@U?$default_delete@$$BY0A@W4entity@entt@@@std@@@std@@@std@@QEAAXQEAV?$unique_ptr@$$BY0A@W4entity@entt@@U?$default_delete@$$BY0A@W4entity@entt@@@std@@@2@_K@Z
pdata	ENDS
;	COMDAT pdata
pdata	SEGMENT
$pdata$??0?$vector@V?$unique_ptr@$$BY0A@W4entity@entt@@U?$default_delete@$$BY0A@W4entity@entt@@@std@@@std@@V?$allocator@V?$unique_ptr@$$BY0A@W4entity@entt@@U?$default_delete@$$BY0A@W4entity@entt@@@std@@@std@@@2@@std@@QEAA@XZ DD imagerel $LN3
	DD	imagerel $LN3+160
	DD	imagerel $unwind$??0?$vector@V?$unique_ptr@$$BY0A@W4entity@entt@@U?$default_delete@$$BY0A@W4entity@entt@@@std@@@std@@V?$allocator@V?$unique_ptr@$$BY0A@W4entity@entt@@U?$default_delete@$$BY0A@W4entity@entt@@@std@@@std@@@2@@std@@QEAA@XZ
pdata	ENDS
;	COMDAT pdata
pdata	SEGMENT
$pdata$??1?$vector@V?$unique_ptr@$$BY0A@W4entity@entt@@U?$default_delete@$$BY0A@W4entity@entt@@@std@@@std@@V?$allocator@V?$unique_ptr@$$BY0A@W4entity@entt@@U?$default_delete@$$BY0A@W4entity@entt@@@std@@@std@@@2@@std@@QEAA@XZ DD imagerel $LN3
	DD	imagerel $LN3+169
	DD	imagerel $unwind$??1?$vector@V?$unique_ptr@$$BY0A@W4entity@entt@@U?$default_delete@$$BY0A@W4entity@entt@@@std@@@std@@V?$allocator@V?$unique_ptr@$$BY0A@W4entity@entt@@U?$default_delete@$$BY0A@W4entity@entt@@@std@@@std@@@2@@std@@QEAA@XZ
pdata	ENDS
;	COMDAT pdata
pdata	SEGMENT
$pdata$?size@?$vector@V?$unique_ptr@$$BY0A@W4entity@entt@@U?$default_delete@$$BY0A@W4entity@entt@@@std@@@std@@V?$allocator@V?$unique_ptr@$$BY0A@W4entity@entt@@U?$default_delete@$$BY0A@W4entity@entt@@@std@@@std@@@2@@std@@QEBA_KXZ DD imagerel $LN3
	DD	imagerel $LN3+98
	DD	imagerel $unwind$?size@?$vector@V?$unique_ptr@$$BY0A@W4entity@entt@@U?$default_delete@$$BY0A@W4entity@entt@@@std@@@std@@V?$allocator@V?$unique_ptr@$$BY0A@W4entity@entt@@U?$default_delete@$$BY0A@W4entity@entt@@@std@@@std@@@2@@std@@QEBA_KXZ
pdata	ENDS
;	COMDAT pdata
pdata	SEGMENT
$pdata$??A?$vector@V?$unique_ptr@$$BY0A@W4entity@entt@@U?$default_delete@$$BY0A@W4entity@entt@@@std@@@std@@V?$allocator@V?$unique_ptr@$$BY0A@W4entity@entt@@U?$default_delete@$$BY0A@W4entity@entt@@@std@@@std@@@2@@std@@QEAAAEAV?$unique_ptr@$$BY0A@W4entity@entt@@U?$default_delete@$$BY0A@W4entity@entt@@@std@@@1@_K@Z DD imagerel $LN12
	DD	imagerel $LN12+250
	DD	imagerel $unwind$??A?$vector@V?$unique_ptr@$$BY0A@W4entity@entt@@U?$default_delete@$$BY0A@W4entity@entt@@@std@@@std@@V?$allocator@V?$unique_ptr@$$BY0A@W4entity@entt@@U?$default_delete@$$BY0A@W4entity@entt@@@std@@@std@@@2@@std@@QEAAAEAV?$unique_ptr@$$BY0A@W4entity@entt@@U?$default_delete@$$BY0A@W4entity@entt@@@std@@@1@_K@Z
pdata	ENDS
;	COMDAT pdata
pdata	SEGMENT
$pdata$??A?$vector@V?$unique_ptr@$$BY0A@W4entity@entt@@U?$default_delete@$$BY0A@W4entity@entt@@@std@@@std@@V?$allocator@V?$unique_ptr@$$BY0A@W4entity@entt@@U?$default_delete@$$BY0A@W4entity@entt@@@std@@@std@@@2@@std@@QEBAAEBV?$unique_ptr@$$BY0A@W4entity@entt@@U?$default_delete@$$BY0A@W4entity@entt@@@std@@@1@_K@Z DD imagerel $LN12
	DD	imagerel $LN12+250
	DD	imagerel $unwind$??A?$vector@V?$unique_ptr@$$BY0A@W4entity@entt@@U?$default_delete@$$BY0A@W4entity@entt@@@std@@@std@@V?$allocator@V?$unique_ptr@$$BY0A@W4entity@entt@@U?$default_delete@$$BY0A@W4entity@entt@@@std@@@std@@@2@@std@@QEBAAEBV?$unique_ptr@$$BY0A@W4entity@entt@@U?$default_delete@$$BY0A@W4entity@entt@@@std@@@1@_K@Z
pdata	ENDS
;	COMDAT pdata
pdata	SEGMENT
$pdata$?_Destroy@?$vector@V?$unique_ptr@$$BY0A@W4entity@entt@@U?$default_delete@$$BY0A@W4entity@entt@@@std@@@std@@V?$allocator@V?$unique_ptr@$$BY0A@W4entity@entt@@U?$default_delete@$$BY0A@W4entity@entt@@@std@@@std@@@2@@std@@AEAAXPEAV?$unique_ptr@$$BY0A@W4entity@entt@@U?$default_delete@$$BY0A@W4entity@entt@@@std@@@2@0@Z DD imagerel $LN3
	DD	imagerel $LN3+108
	DD	imagerel $unwind$?_Destroy@?$vector@V?$unique_ptr@$$BY0A@W4entity@entt@@U?$default_delete@$$BY0A@W4entity@entt@@@std@@@std@@V?$allocator@V?$unique_ptr@$$BY0A@W4entity@entt@@U?$default_delete@$$BY0A@W4entity@entt@@@std@@@std@@@2@@std@@AEAAXPEAV?$unique_ptr@$$BY0A@W4entity@entt@@U?$default_delete@$$BY0A@W4entity@entt@@@std@@@2@0@Z
pdata	ENDS
;	COMDAT pdata
pdata	SEGMENT
$pdata$?_Tidy@?$vector@V?$unique_ptr@$$BY0A@W4entity@entt@@U?$default_delete@$$BY0A@W4entity@entt@@@std@@@std@@V?$allocator@V?$unique_ptr@$$BY0A@W4entity@entt@@U?$default_delete@$$BY0A@W4entity@entt@@@std@@@std@@@2@@std@@AEAAXXZ DD imagerel $LN4
	DD	imagerel $LN4+280
	DD	imagerel $unwind$?_Tidy@?$vector@V?$unique_ptr@$$BY0A@W4entity@entt@@U?$default_delete@$$BY0A@W4entity@entt@@@std@@@std@@V?$allocator@V?$unique_ptr@$$BY0A@W4entity@entt@@U?$default_delete@$$BY0A@W4entity@entt@@@std@@@std@@@2@@std@@AEAAXXZ
pdata	ENDS
;	COMDAT pdata
pdata	SEGMENT
$pdata$?_Getal@?$vector@V?$unique_ptr@$$BY0A@W4entity@entt@@U?$default_delete@$$BY0A@W4entity@entt@@@std@@@std@@V?$allocator@V?$unique_ptr@$$BY0A@W4entity@entt@@U?$default_delete@$$BY0A@W4entity@entt@@@std@@@std@@@2@@std@@AEAAAEAV?$allocator@V?$unique_ptr@$$BY0A@W4entity@entt@@U?$default_delete@$$BY0A@W4entity@entt@@@std@@@std@@@2@XZ DD imagerel $LN3
	DD	imagerel $LN3+79
	DD	imagerel $unwind$?_Getal@?$vector@V?$unique_ptr@$$BY0A@W4entity@entt@@U?$default_delete@$$BY0A@W4entity@entt@@@std@@@std@@V?$allocator@V?$unique_ptr@$$BY0A@W4entity@entt@@U?$default_delete@$$BY0A@W4entity@entt@@@std@@@std@@@2@@std@@AEAAAEAV?$allocator@V?$unique_ptr@$$BY0A@W4entity@entt@@U?$default_delete@$$BY0A@W4entity@entt@@@std@@@std@@@2@XZ
pdata	ENDS
;	COMDAT pdata
pdata	SEGMENT
$pdata$??0?$_Vector_val@U?$_Simple_types@V?$unique_ptr@$$BY0A@W4entity@entt@@U?$default_delete@$$BY0A@W4entity@entt@@@std@@@std@@@std@@@std@@QEAA@XZ DD imagerel $LN3
	DD	imagerel $LN3+128
	DD	imagerel $unwind$??0?$_Vector_val@U?$_Simple_types@V?$unique_ptr@$$BY0A@W4entity@entt@@U?$default_delete@$$BY0A@W4entity@entt@@@std@@@std@@@std@@@std@@QEAA@XZ
pdata	ENDS
;	COMDAT pdata
pdata	SEGMENT
$pdata$?_Get_first@?$_Compressed_pair@V?$allocator@V?$unique_ptr@$$BY0A@W4entity@entt@@U?$default_delete@$$BY0A@W4entity@entt@@@std@@@std@@@std@@V?$_Vector_val@U?$_Simple_types@V?$unique_ptr@$$BY0A@W4entity@entt@@U?$default_delete@$$BY0A@W4entity@entt@@@std@@@std@@@std@@@2@$00@std@@QEAAAEAV?$allocator@V?$unique_ptr@$$BY0A@W4entity@entt@@U?$default_delete@$$BY0A@W4entity@entt@@@std@@@std@@@2@XZ DD imagerel $LN3
	DD	imagerel $LN3+71
	DD	imagerel $unwind$?_Get_first@?$_Compressed_pair@V?$allocator@V?$unique_ptr@$$BY0A@W4entity@entt@@U?$default_delete@$$BY0A@W4entity@entt@@@std@@@std@@@std@@V?$_Vector_val@U?$_Simple_types@V?$unique_ptr@$$BY0A@W4entity@entt@@U?$default_delete@$$BY0A@W4entity@entt@@@std@@@std@@@std@@@2@$00@std@@QEAAAEAV?$allocator@V?$unique_ptr@$$BY0A@W4entity@entt@@U?$default_delete@$$BY0A@W4entity@entt@@@std@@@std@@@2@XZ
pdata	ENDS
;	COMDAT pdata
pdata	SEGMENT
$pdata$??_G?$sparse_set@W4entity@entt@@@entt@@UEAAPEAXI@Z DD imagerel $LN4
	DD	imagerel $LN4+105
	DD	imagerel $unwind$??_G?$sparse_set@W4entity@entt@@@entt@@UEAAPEAXI@Z
pdata	ENDS
;	COMDAT pdata
pdata	SEGMENT
$pdata$?get@?$storage@W4entity@entt@@UTransformComponent@Immortal@@X@entt@@QEBAAEBUTransformComponent@Immortal@@W4entity@2@@Z DD imagerel $LN3
	DD	imagerel $LN3+119
	DD	imagerel $unwind$?get@?$storage@W4entity@entt@@UTransformComponent@Immortal@@X@entt@@QEBAAEBUTransformComponent@Immortal@@W4entity@2@@Z
pdata	ENDS
;	COMDAT pdata
pdata	SEGMENT
$pdata$?get@?$storage@W4entity@entt@@UTransformComponent@Immortal@@X@entt@@QEAAAEAUTransformComponent@Immortal@@W4entity@2@@Z DD imagerel $LN3
	DD	imagerel $LN3+105
	DD	imagerel $unwind$?get@?$storage@W4entity@entt@@UTransformComponent@Immortal@@X@entt@@QEAAAEAUTransformComponent@Immortal@@W4entity@2@@Z
pdata	ENDS
;	COMDAT pdata
pdata	SEGMENT
$pdata$?erase@?$storage@W4entity@entt@@UTransformComponent@Immortal@@X@entt@@QEAAXW4entity@2@@Z DD imagerel $LN3
	DD	imagerel $LN3+267
	DD	imagerel $unwind$?erase@?$storage@W4entity@entt@@UTransformComponent@Immortal@@X@entt@@QEAAXW4entity@2@@Z
pdata	ENDS
;	COMDAT pdata
pdata	SEGMENT
$pdata$?swap@?$storage@W4entity@entt@@UTransformComponent@Immortal@@X@entt@@UEAAXW4entity@2@0@Z DD imagerel $LN3
	DD	imagerel $LN3+233
	DD	imagerel $unwind$?swap@?$storage@W4entity@entt@@UTransformComponent@Immortal@@X@entt@@UEAAXW4entity@2@0@Z
pdata	ENDS
;	COMDAT pdata
pdata	SEGMENT
$pdata$??0?$allocator@UTransformComponent@Immortal@@@std@@QEAA@XZ DD imagerel $LN3
	DD	imagerel $LN3+71
	DD	imagerel $unwind$??0?$allocator@UTransformComponent@Immortal@@@std@@QEAA@XZ
pdata	ENDS
;	COMDAT pdata
pdata	SEGMENT
$pdata$?deallocate@?$allocator@UTransformComponent@Immortal@@@std@@QEAAXQEAUTransformComponent@Immortal@@_K@Z DD imagerel $LN3
	DD	imagerel $LN3+97
	DD	imagerel $unwind$?deallocate@?$allocator@UTransformComponent@Immortal@@@std@@QEAAXQEAUTransformComponent@Immortal@@_K@Z
pdata	ENDS
;	COMDAT pdata
pdata	SEGMENT
$pdata$??0?$vector@UTransformComponent@Immortal@@V?$allocator@UTransformComponent@Immortal@@@std@@@std@@QEAA@XZ DD imagerel $LN3
	DD	imagerel $LN3+160
	DD	imagerel $unwind$??0?$vector@UTransformComponent@Immortal@@V?$allocator@UTransformComponent@Immortal@@@std@@@std@@QEAA@XZ
pdata	ENDS
;	COMDAT pdata
pdata	SEGMENT
$pdata$??1?$vector@UTransformComponent@Immortal@@V?$allocator@UTransformComponent@Immortal@@@std@@@std@@QEAA@XZ DD imagerel $LN3
	DD	imagerel $LN3+169
	DD	imagerel $unwind$??1?$vector@UTransformComponent@Immortal@@V?$allocator@UTransformComponent@Immortal@@@std@@@std@@QEAA@XZ
pdata	ENDS
;	COMDAT pdata
pdata	SEGMENT
$pdata$?pop_back@?$vector@UTransformComponent@Immortal@@V?$allocator@UTransformComponent@Immortal@@@std@@@std@@QEAAXXZ DD imagerel $LN12
	DD	imagerel $LN12+338
	DD	imagerel $unwind$?pop_back@?$vector@UTransformComponent@Immortal@@V?$allocator@UTransformComponent@Immortal@@@std@@@std@@QEAAXXZ
pdata	ENDS
;	COMDAT pdata
pdata	SEGMENT
$pdata$??A?$vector@UTransformComponent@Immortal@@V?$allocator@UTransformComponent@Immortal@@@std@@@std@@QEAAAEAUTransformComponent@Immortal@@_K@Z DD imagerel $LN12
	DD	imagerel $LN12+253
	DD	imagerel $unwind$??A?$vector@UTransformComponent@Immortal@@V?$allocator@UTransformComponent@Immortal@@@std@@@std@@QEAAAEAUTransformComponent@Immortal@@_K@Z
pdata	ENDS
;	COMDAT pdata
pdata	SEGMENT
$pdata$??A?$vector@UTransformComponent@Immortal@@V?$allocator@UTransformComponent@Immortal@@@std@@@std@@QEBAAEBUTransformComponent@Immortal@@_K@Z DD imagerel $LN12
	DD	imagerel $LN12+253
	DD	imagerel $unwind$??A?$vector@UTransformComponent@Immortal@@V?$allocator@UTransformComponent@Immortal@@@std@@@std@@QEBAAEBUTransformComponent@Immortal@@_K@Z
pdata	ENDS
;	COMDAT pdata
pdata	SEGMENT
$pdata$?back@?$vector@UTransformComponent@Immortal@@V?$allocator@UTransformComponent@Immortal@@@std@@@std@@QEAAAEAUTransformComponent@Immortal@@XZ DD imagerel $LN12
	DD	imagerel $LN12+229
	DD	imagerel $unwind$?back@?$vector@UTransformComponent@Immortal@@V?$allocator@UTransformComponent@Immortal@@@std@@@std@@QEAAAEAUTransformComponent@Immortal@@XZ
pdata	ENDS
;	COMDAT pdata
pdata	SEGMENT
$pdata$?_Destroy@?$vector@UTransformComponent@Immortal@@V?$allocator@UTransformComponent@Immortal@@@std@@@std@@AEAAXPEAUTransformComponent@Immortal@@0@Z DD imagerel $LN3
	DD	imagerel $LN3+108
	DD	imagerel $unwind$?_Destroy@?$vector@UTransformComponent@Immortal@@V?$allocator@UTransformComponent@Immortal@@@std@@@std@@AEAAXPEAUTransformComponent@Immortal@@0@Z
pdata	ENDS
;	COMDAT pdata
pdata	SEGMENT
$pdata$?_Tidy@?$vector@UTransformComponent@Immortal@@V?$allocator@UTransformComponent@Immortal@@@std@@@std@@AEAAXXZ DD imagerel $LN4
	DD	imagerel $LN4+286
	DD	imagerel $unwind$?_Tidy@?$vector@UTransformComponent@Immortal@@V?$allocator@UTransformComponent@Immortal@@@std@@@std@@AEAAXXZ
pdata	ENDS
;	COMDAT pdata
pdata	SEGMENT
$pdata$?_Orphan_range@?$vector@UTransformComponent@Immortal@@V?$allocator@UTransformComponent@Immortal@@@std@@@std@@AEBAXPEAUTransformComponent@Immortal@@0@Z DD imagerel $LN9
	DD	imagerel $LN9+235
	DD	imagerel $unwind$?_Orphan_range@?$vector@UTransformComponent@Immortal@@V?$allocator@UTransformComponent@Immortal@@@std@@@std@@AEBAXPEAUTransformComponent@Immortal@@0@Z
pdata	ENDS
;	COMDAT pdata
pdata	SEGMENT
$pdata$?_Getal@?$vector@UTransformComponent@Immortal@@V?$allocator@UTransformComponent@Immortal@@@std@@@std@@AEAAAEAV?$allocator@UTransformComponent@Immortal@@@2@XZ DD imagerel $LN3
	DD	imagerel $LN3+79
	DD	imagerel $unwind$?_Getal@?$vector@UTransformComponent@Immortal@@V?$allocator@UTransformComponent@Immortal@@@std@@@std@@AEAAAEAV?$allocator@UTransformComponent@Immortal@@@2@XZ
pdata	ENDS
;	COMDAT pdata
pdata	SEGMENT
$pdata$??0?$_Vector_val@U?$_Simple_types@UTransformComponent@Immortal@@@std@@@std@@QEAA@XZ DD imagerel $LN3
	DD	imagerel $LN3+128
	DD	imagerel $unwind$??0?$_Vector_val@U?$_Simple_types@UTransformComponent@Immortal@@@std@@@std@@QEAA@XZ
pdata	ENDS
;	COMDAT pdata
pdata	SEGMENT
$pdata$?_Get_first@?$_Compressed_pair@V?$allocator@UTransformComponent@Immortal@@@std@@V?$_Vector_val@U?$_Simple_types@UTransformComponent@Immortal@@@std@@@2@$00@std@@QEAAAEAV?$allocator@UTransformComponent@Immortal@@@2@XZ DD imagerel $LN3
	DD	imagerel $LN3+71
	DD	imagerel $unwind$?_Get_first@?$_Compressed_pair@V?$allocator@UTransformComponent@Immortal@@@std@@V?$_Vector_val@U?$_Simple_types@UTransformComponent@Immortal@@@std@@@2@$00@std@@QEAAAEAV?$allocator@UTransformComponent@Immortal@@@2@XZ
pdata	ENDS
;	COMDAT pdata
pdata	SEGMENT
$pdata$??0?$storage@W4entity@entt@@UTransformComponent@Immortal@@X@entt@@QEAA@XZ DD imagerel $LN3
	DD	imagerel $LN3+107
	DD	imagerel $unwind$??0?$storage@W4entity@entt@@UTransformComponent@Immortal@@X@entt@@QEAA@XZ
pdata	ENDS
;	COMDAT pdata
pdata	SEGMENT
$pdata$??1?$storage@W4entity@entt@@UTransformComponent@Immortal@@X@entt@@UEAA@XZ DD imagerel $LN3
	DD	imagerel $LN3+83
	DD	imagerel $unwind$??1?$storage@W4entity@entt@@UTransformComponent@Immortal@@X@entt@@UEAA@XZ
pdata	ENDS
;	COMDAT pdata
pdata	SEGMENT
$pdata$??_G?$storage@W4entity@entt@@UTransformComponent@Immortal@@X@entt@@UEAAPEAXI@Z DD imagerel $LN4
	DD	imagerel $LN4+105
	DD	imagerel $unwind$??_G?$storage@W4entity@entt@@UTransformComponent@Immortal@@X@entt@@UEAAPEAXI@Z
pdata	ENDS
;	COMDAT pdata
pdata	SEGMENT
$pdata$?remove@?$pool_handler@UTransformComponent@Immortal@@@?$basic_registry@W4entity@entt@@@entt@@QEAAXAEAV23@W4entity@3@@Z DD imagerel $LN3
	DD	imagerel $LN3+138
	DD	imagerel $unwind$?remove@?$pool_handler@UTransformComponent@Immortal@@@?$basic_registry@W4entity@entt@@@entt@@QEAAXAEAV23@W4entity@3@@Z
pdata	ENDS
;	COMDAT pdata
pdata	SEGMENT
$pdata$?publish@?$sigh@$$A6AXAEAV?$basic_registry@W4entity@entt@@@entt@@W4entity@2@@Z@entt@@QEBAXAEAV?$basic_registry@W4entity@entt@@@2@W4entity@2@@Z DD imagerel $LN6
	DD	imagerel $LN6+176
	DD	imagerel $unwind$?publish@?$sigh@$$A6AXAEAV?$basic_registry@W4entity@entt@@@entt@@W4entity@2@@Z@entt@@QEBAXAEAV?$basic_registry@W4entity@entt@@@2@W4entity@2@@Z
pdata	ENDS
;	COMDAT pdata
pdata	SEGMENT
$pdata$??0?$allocator@V?$delegate@$$A6AXAEAV?$basic_registry@W4entity@entt@@@entt@@W4entity@2@@Z@entt@@@std@@QEAA@XZ DD imagerel $LN3
	DD	imagerel $LN3+71
	DD	imagerel $unwind$??0?$allocator@V?$delegate@$$A6AXAEAV?$basic_registry@W4entity@entt@@@entt@@W4entity@2@@Z@entt@@@std@@QEAA@XZ
pdata	ENDS
;	COMDAT pdata
pdata	SEGMENT
$pdata$?deallocate@?$allocator@V?$delegate@$$A6AXAEAV?$basic_registry@W4entity@entt@@@entt@@W4entity@2@@Z@entt@@@std@@QEAAXQEAV?$delegate@$$A6AXAEAV?$basic_registry@W4entity@entt@@@entt@@W4entity@2@@Z@entt@@_K@Z DD imagerel $LN3
	DD	imagerel $LN3+97
	DD	imagerel $unwind$?deallocate@?$allocator@V?$delegate@$$A6AXAEAV?$basic_registry@W4entity@entt@@@entt@@W4entity@2@@Z@entt@@@std@@QEAAXQEAV?$delegate@$$A6AXAEAV?$basic_registry@W4entity@entt@@@entt@@W4entity@2@@Z@entt@@_K@Z
pdata	ENDS
;	COMDAT pdata
pdata	SEGMENT
$pdata$??0?$vector@V?$delegate@$$A6AXAEAV?$basic_registry@W4entity@entt@@@entt@@W4entity@2@@Z@entt@@V?$allocator@V?$delegate@$$A6AXAEAV?$basic_registry@W4entity@entt@@@entt@@W4entity@2@@Z@entt@@@std@@@std@@QEAA@XZ DD imagerel $LN3
	DD	imagerel $LN3+160
	DD	imagerel $unwind$??0?$vector@V?$delegate@$$A6AXAEAV?$basic_registry@W4entity@entt@@@entt@@W4entity@2@@Z@entt@@V?$allocator@V?$delegate@$$A6AXAEAV?$basic_registry@W4entity@entt@@@entt@@W4entity@2@@Z@entt@@@std@@@std@@QEAA@XZ
pdata	ENDS
;	COMDAT pdata
pdata	SEGMENT
$pdata$??1?$vector@V?$delegate@$$A6AXAEAV?$basic_registry@W4entity@entt@@@entt@@W4entity@2@@Z@entt@@V?$allocator@V?$delegate@$$A6AXAEAV?$basic_registry@W4entity@entt@@@entt@@W4entity@2@@Z@entt@@@std@@@std@@QEAA@XZ DD imagerel $LN3
	DD	imagerel $LN3+169
	DD	imagerel $unwind$??1?$vector@V?$delegate@$$A6AXAEAV?$basic_registry@W4entity@entt@@@entt@@W4entity@2@@Z@entt@@V?$allocator@V?$delegate@$$A6AXAEAV?$basic_registry@W4entity@entt@@@entt@@W4entity@2@@Z@entt@@@std@@@std@@QEAA@XZ
pdata	ENDS
;	COMDAT pdata
pdata	SEGMENT
$pdata$?_Unchecked_begin@?$vector@V?$delegate@$$A6AXAEAV?$basic_registry@W4entity@entt@@@entt@@W4entity@2@@Z@entt@@V?$allocator@V?$delegate@$$A6AXAEAV?$basic_registry@W4entity@entt@@@entt@@W4entity@2@@Z@entt@@@std@@@std@@QEBAPEBV?$delegate@$$A6AXAEAV?$basic_registry@W4entity@entt@@@entt@@W4entity@2@@Z@entt@@XZ DD imagerel $LN3
	DD	imagerel $LN3+75
	DD	imagerel $unwind$?_Unchecked_begin@?$vector@V?$delegate@$$A6AXAEAV?$basic_registry@W4entity@entt@@@entt@@W4entity@2@@Z@entt@@V?$allocator@V?$delegate@$$A6AXAEAV?$basic_registry@W4entity@entt@@@entt@@W4entity@2@@Z@entt@@@std@@@std@@QEBAPEBV?$delegate@$$A6AXAEAV?$basic_registry@W4entity@entt@@@entt@@W4entity@2@@Z@entt@@XZ
pdata	ENDS
;	COMDAT pdata
pdata	SEGMENT
$pdata$?_Unchecked_end@?$vector@V?$delegate@$$A6AXAEAV?$basic_registry@W4entity@entt@@@entt@@W4entity@2@@Z@entt@@V?$allocator@V?$delegate@$$A6AXAEAV?$basic_registry@W4entity@entt@@@entt@@W4entity@2@@Z@entt@@@std@@@std@@QEBAPEBV?$delegate@$$A6AXAEAV?$basic_registry@W4entity@entt@@@entt@@W4entity@2@@Z@entt@@XZ DD imagerel $LN3
	DD	imagerel $LN3+75
	DD	imagerel $unwind$?_Unchecked_end@?$vector@V?$delegate@$$A6AXAEAV?$basic_registry@W4entity@entt@@@entt@@W4entity@2@@Z@entt@@V?$allocator@V?$delegate@$$A6AXAEAV?$basic_registry@W4entity@entt@@@entt@@W4entity@2@@Z@entt@@@std@@@std@@QEBAPEBV?$delegate@$$A6AXAEAV?$basic_registry@W4entity@entt@@@entt@@W4entity@2@@Z@entt@@XZ
pdata	ENDS
;	COMDAT pdata
pdata	SEGMENT
$pdata$?_Destroy@?$vector@V?$delegate@$$A6AXAEAV?$basic_registry@W4entity@entt@@@entt@@W4entity@2@@Z@entt@@V?$allocator@V?$delegate@$$A6AXAEAV?$basic_registry@W4entity@entt@@@entt@@W4entity@2@@Z@entt@@@std@@@std@@AEAAXPEAV?$delegate@$$A6AXAEAV?$basic_registry@W4entity@entt@@@entt@@W4entity@2@@Z@entt@@0@Z DD imagerel $LN3
	DD	imagerel $LN3+108
	DD	imagerel $unwind$?_Destroy@?$vector@V?$delegate@$$A6AXAEAV?$basic_registry@W4entity@entt@@@entt@@W4entity@2@@Z@entt@@V?$allocator@V?$delegate@$$A6AXAEAV?$basic_registry@W4entity@entt@@@entt@@W4entity@2@@Z@entt@@@std@@@std@@AEAAXPEAV?$delegate@$$A6AXAEAV?$basic_registry@W4entity@entt@@@entt@@W4entity@2@@Z@entt@@0@Z
pdata	ENDS
;	COMDAT pdata
pdata	SEGMENT
$pdata$?_Tidy@?$vector@V?$delegate@$$A6AXAEAV?$basic_registry@W4entity@entt@@@entt@@W4entity@2@@Z@entt@@V?$allocator@V?$delegate@$$A6AXAEAV?$basic_registry@W4entity@entt@@@entt@@W4entity@2@@Z@entt@@@std@@@std@@AEAAXXZ DD imagerel $LN4
	DD	imagerel $LN4+280
	DD	imagerel $unwind$?_Tidy@?$vector@V?$delegate@$$A6AXAEAV?$basic_registry@W4entity@entt@@@entt@@W4entity@2@@Z@entt@@V?$allocator@V?$delegate@$$A6AXAEAV?$basic_registry@W4entity@entt@@@entt@@W4entity@2@@Z@entt@@@std@@@std@@AEAAXXZ
pdata	ENDS
;	COMDAT pdata
pdata	SEGMENT
$pdata$?_Getal@?$vector@V?$delegate@$$A6AXAEAV?$basic_registry@W4entity@entt@@@entt@@W4entity@2@@Z@entt@@V?$allocator@V?$delegate@$$A6AXAEAV?$basic_registry@W4entity@entt@@@entt@@W4entity@2@@Z@entt@@@std@@@std@@AEAAAEAV?$allocator@V?$delegate@$$A6AXAEAV?$basic_registry@W4entity@entt@@@entt@@W4entity@2@@Z@entt@@@2@XZ DD imagerel $LN3
	DD	imagerel $LN3+79
	DD	imagerel $unwind$?_Getal@?$vector@V?$delegate@$$A6AXAEAV?$basic_registry@W4entity@entt@@@entt@@W4entity@2@@Z@entt@@V?$allocator@V?$delegate@$$A6AXAEAV?$basic_registry@W4entity@entt@@@entt@@W4entity@2@@Z@entt@@@std@@@std@@AEAAAEAV?$allocator@V?$delegate@$$A6AXAEAV?$basic_registry@W4entity@entt@@@entt@@W4entity@2@@Z@entt@@@2@XZ
pdata	ENDS
;	COMDAT pdata
pdata	SEGMENT
$pdata$??0?$_Vector_val@U?$_Simple_types@V?$delegate@$$A6AXAEAV?$basic_registry@W4entity@entt@@@entt@@W4entity@2@@Z@entt@@@std@@@std@@QEAA@XZ DD imagerel $LN3
	DD	imagerel $LN3+128
	DD	imagerel $unwind$??0?$_Vector_val@U?$_Simple_types@V?$delegate@$$A6AXAEAV?$basic_registry@W4entity@entt@@@entt@@W4entity@2@@Z@entt@@@std@@@std@@QEAA@XZ
pdata	ENDS
;	COMDAT pdata
pdata	SEGMENT
$pdata$?_Get_first@?$_Compressed_pair@V?$allocator@V?$delegate@$$A6AXAEAV?$basic_registry@W4entity@entt@@@entt@@W4entity@2@@Z@entt@@@std@@V?$_Vector_val@U?$_Simple_types@V?$delegate@$$A6AXAEAV?$basic_registry@W4entity@entt@@@entt@@W4entity@2@@Z@entt@@@std@@@2@$00@std@@QEAAAEAV?$allocator@V?$delegate@$$A6AXAEAV?$basic_registry@W4entity@entt@@@entt@@W4entity@2@@Z@entt@@@2@XZ DD imagerel $LN3
	DD	imagerel $LN3+71
	DD	imagerel $unwind$?_Get_first@?$_Compressed_pair@V?$allocator@V?$delegate@$$A6AXAEAV?$basic_registry@W4entity@entt@@@entt@@W4entity@2@@Z@entt@@@std@@V?$_Vector_val@U?$_Simple_types@V?$delegate@$$A6AXAEAV?$basic_registry@W4entity@entt@@@entt@@W4entity@2@@Z@entt@@@std@@@2@$00@std@@QEAAAEAV?$allocator@V?$delegate@$$A6AXAEAV?$basic_registry@W4entity@entt@@@entt@@W4entity@2@@Z@entt@@@2@XZ
pdata	ENDS
;	COMDAT pdata
pdata	SEGMENT
$pdata$??0?$sigh@$$A6AXAEAV?$basic_registry@W4entity@entt@@@entt@@W4entity@2@@Z@entt@@QEAA@XZ DD imagerel $LN3
	DD	imagerel $LN3+74
	DD	imagerel $unwind$??0?$sigh@$$A6AXAEAV?$basic_registry@W4entity@entt@@@entt@@W4entity@2@@Z@entt@@QEAA@XZ
pdata	ENDS
;	COMDAT pdata
pdata	SEGMENT
$pdata$??1?$sigh@$$A6AXAEAV?$basic_registry@W4entity@entt@@@entt@@W4entity@2@@Z@entt@@QEAA@XZ DD imagerel $LN3
	DD	imagerel $LN3+67
	DD	imagerel $unwind$??1?$sigh@$$A6AXAEAV?$basic_registry@W4entity@entt@@@entt@@W4entity@2@@Z@entt@@QEAA@XZ
pdata	ENDS
;	COMDAT pdata
pdata	SEGMENT
$pdata$??0?$pool_handler@UTransformComponent@Immortal@@@?$basic_registry@W4entity@entt@@@entt@@QEAA@XZ DD imagerel $LN3
	DD	imagerel $LN3+237
	DD	imagerel $unwind$??0?$pool_handler@UTransformComponent@Immortal@@@?$basic_registry@W4entity@entt@@@entt@@QEAA@XZ
pdata	ENDS
;	COMDAT pdata
pdata	SEGMENT
$pdata$??1?$pool_handler@UTransformComponent@Immortal@@@?$basic_registry@W4entity@entt@@@entt@@UEAA@XZ DD imagerel $LN3
	DD	imagerel $LN3+125
	DD	imagerel $unwind$??1?$pool_handler@UTransformComponent@Immortal@@@?$basic_registry@W4entity@entt@@@entt@@UEAA@XZ
pdata	ENDS
;	COMDAT pdata
pdata	SEGMENT
$pdata$??_G?$pool_handler@UTransformComponent@Immortal@@@?$basic_registry@W4entity@entt@@@entt@@UEAAPEAXI@Z DD imagerel $LN4
	DD	imagerel $LN4+105
	DD	imagerel $unwind$??_G?$pool_handler@UTransformComponent@Immortal@@@?$basic_registry@W4entity@entt@@@entt@@UEAAPEAXI@Z
pdata	ENDS
;	COMDAT pdata
pdata	SEGMENT
$pdata$??$_Deallocate_plain@V?$allocator@U_Container_proxy@std@@@std@@@std@@YAXAEAV?$allocator@U_Container_proxy@std@@@0@QEAU_Container_proxy@0@@Z DD imagerel $LN3
	DD	imagerel $LN3+95
	DD	imagerel $unwind$??$_Deallocate_plain@V?$allocator@U_Container_proxy@std@@@std@@@std@@YAXAEAV?$allocator@U_Container_proxy@std@@@0@QEAU_Container_proxy@0@@Z
pdata	ENDS
;	COMDAT pdata
pdata	SEGMENT
$pdata$??$addressof@U_Container_proxy@std@@@std@@YAPEAU_Container_proxy@0@AEAU10@@Z DD imagerel $LN3
	DD	imagerel $LN3+71
	DD	imagerel $unwind$??$addressof@U_Container_proxy@std@@@std@@YAPEAU_Container_proxy@0@AEAU10@@Z
pdata	ENDS
;	COMDAT pdata
pdata	SEGMENT
$pdata$??$_Voidify_iter@PEAU_Container_proxy@std@@@std@@YAPEAXPEAU_Container_proxy@0@@Z DD imagerel $LN3
	DD	imagerel $LN3+71
	DD	imagerel $unwind$??$_Voidify_iter@PEAU_Container_proxy@std@@@std@@YAPEAXPEAU_Container_proxy@0@@Z
pdata	ENDS
;	COMDAT pdata
pdata	SEGMENT
$pdata$??$forward@PEAU_Container_base12@std@@@std@@YA$$QEAPEAU_Container_base12@0@AEAPEAU10@@Z DD imagerel $LN3
	DD	imagerel $LN3+71
	DD	imagerel $unwind$??$forward@PEAU_Container_base12@std@@@std@@YA$$QEAPEAU_Container_base12@0@AEAPEAU10@@Z
pdata	ENDS
;	COMDAT pdata
pdata	SEGMENT
$pdata$??$_Allocate_manually_vector_aligned@U_Default_allocate_traits@std@@@std@@YAPEAX_K@Z DD imagerel $LN13
	DD	imagerel $LN13+300
	DD	imagerel $unwind$??$_Allocate_manually_vector_aligned@U_Default_allocate_traits@std@@@std@@YAPEAX_K@Z
pdata	ENDS
;	COMDAT pdata
pdata	SEGMENT
$pdata$??$swap@UTransformComponent@Immortal@@$0A@@std@@YAXAEAUTransformComponent@Immortal@@0@Z DD imagerel $LN3
	DD	imagerel $LN3+171
	DD	imagerel $unwind$??$swap@UTransformComponent@Immortal@@$0A@@std@@YAXAEAUTransformComponent@Immortal@@0@Z
pdata	ENDS
;	COMDAT pdata
pdata	SEGMENT
$pdata$??$as_const@V?$storage@W4entity@entt@@UTransformComponent@Immortal@@X@entt@@@std@@YAAEBV?$storage@W4entity@entt@@UTransformComponent@Immortal@@X@entt@@AEAV12@@Z DD imagerel $LN3
	DD	imagerel $LN3+71
	DD	imagerel $unwind$??$as_const@V?$storage@W4entity@entt@@UTransformComponent@Immortal@@X@entt@@@std@@YAAEBV?$storage@W4entity@entt@@UTransformComponent@Immortal@@X@entt@@AEAV12@@Z
pdata	ENDS
;	COMDAT pdata
pdata	SEGMENT
$pdata$??1?$unique_ptr@$$BY0A@W4entity@entt@@U?$default_delete@$$BY0A@W4entity@entt@@@std@@@std@@QEAA@XZ DD imagerel $LN4
	DD	imagerel $LN4+135
	DD	imagerel $unwind$??1?$unique_ptr@$$BY0A@W4entity@entt@@U?$default_delete@$$BY0A@W4entity@entt@@@std@@@std@@QEAA@XZ
pdata	ENDS
;	COMDAT pdata
pdata	SEGMENT
$pdata$??A?$unique_ptr@$$BY0A@W4entity@entt@@U?$default_delete@$$BY0A@W4entity@entt@@@std@@@std@@QEBAAEAW4entity@entt@@_K@Z DD imagerel $LN3
	DD	imagerel $LN3+90
	DD	imagerel $unwind$??A?$unique_ptr@$$BY0A@W4entity@entt@@U?$default_delete@$$BY0A@W4entity@entt@@@std@@@std@@QEBAAEAW4entity@entt@@_K@Z
pdata	ENDS
;	COMDAT pdata
pdata	SEGMENT
$pdata$??B?$unique_ptr@$$BY0A@W4entity@entt@@U?$default_delete@$$BY0A@W4entity@entt@@@std@@@std@@QEBA_NXZ DD imagerel $LN5
	DD	imagerel $LN5+100
	DD	imagerel $unwind$??B?$unique_ptr@$$BY0A@W4entity@entt@@U?$default_delete@$$BY0A@W4entity@entt@@@std@@@std@@QEBA_NXZ
pdata	ENDS
;	COMDAT pdata
pdata	SEGMENT
$pdata$?_Get_first@?$_Compressed_pair@U?$default_delete@$$BY0A@W4entity@entt@@@std@@PEAW4entity@entt@@$00@std@@QEAAAEAU?$default_delete@$$BY0A@W4entity@entt@@@2@XZ DD imagerel $LN3
	DD	imagerel $LN3+71
	DD	imagerel $unwind$?_Get_first@?$_Compressed_pair@U?$default_delete@$$BY0A@W4entity@entt@@@std@@PEAW4entity@entt@@$00@std@@QEAAAEAU?$default_delete@$$BY0A@W4entity@entt@@@2@XZ
pdata	ENDS
;	COMDAT pdata
pdata	SEGMENT
$pdata$??_G?$unique_ptr@$$BY0A@W4entity@entt@@U?$default_delete@$$BY0A@W4entity@entt@@@std@@@std@@QEAAPEAXI@Z DD imagerel $LN4
	DD	imagerel $LN4+105
	DD	imagerel $unwind$??_G?$unique_ptr@$$BY0A@W4entity@entt@@U?$default_delete@$$BY0A@W4entity@entt@@@std@@@std@@QEAAPEAXI@Z
pdata	ENDS
;	COMDAT pdata
pdata	SEGMENT
$pdata$??$swap@W4entity@entt@@$0A@@std@@YAXAEAW4entity@entt@@0@Z DD imagerel $LN3
	DD	imagerel $LN3+145
	DD	imagerel $unwind$??$swap@W4entity@entt@@$0A@@std@@YAXAEAW4entity@entt@@0@Z
pdata	ENDS
;	COMDAT pdata
pdata	SEGMENT
$pdata$??$?9W4entity@entt@@@internal@entt@@YA_NW4entity@1@Vnull@01@@Z DD imagerel $LN5
	DD	imagerel $LN5+120
	DD	imagerel $unwind$??$?9W4entity@entt@@@internal@entt@@YA_NW4entity@1@Vnull@01@@Z
pdata	ENDS
;	COMDAT pdata
pdata	SEGMENT
$pdata$??$as_const@V?$basic_registry@W4entity@entt@@@entt@@@std@@YAAEBV?$basic_registry@W4entity@entt@@@entt@@AEAV12@@Z DD imagerel $LN3
	DD	imagerel $LN3+71
	DD	imagerel $unwind$??$as_const@V?$basic_registry@W4entity@entt@@@entt@@@std@@YAAEBV?$basic_registry@W4entity@entt@@@entt@@AEAV12@@Z
pdata	ENDS
;	COMDAT pdata
pdata	SEGMENT
$pdata$?deallocate@?$_Default_allocator_traits@V?$allocator@U_Container_proxy@std@@@std@@@std@@SAXAEAV?$allocator@U_Container_proxy@std@@@2@QEAU_Container_proxy@2@_K@Z DD imagerel $LN3
	DD	imagerel $LN3+97
	DD	imagerel $unwind$?deallocate@?$_Default_allocator_traits@V?$allocator@U_Container_proxy@std@@@std@@@std@@SAXAEAV?$allocator@U_Container_proxy@std@@@2@QEAU_Container_proxy@2@_K@Z
pdata	ENDS
;	COMDAT pdata
pdata	SEGMENT
$pdata$??$move@AEAUTransformComponent@Immortal@@@std@@YA$$QEAUTransformComponent@Immortal@@AEAU12@@Z DD imagerel $LN3
	DD	imagerel $LN3+71
	DD	imagerel $unwind$??$move@AEAUTransformComponent@Immortal@@@std@@YA$$QEAUTransformComponent@Immortal@@AEAU12@@Z
pdata	ENDS
;	COMDAT pdata
pdata	SEGMENT
$pdata$??$move@AEAW4entity@entt@@@std@@YA$$QEAW4entity@entt@@AEAW412@@Z DD imagerel $LN3
	DD	imagerel $LN3+71
	DD	imagerel $unwind$??$move@AEAW4entity@entt@@@std@@YA$$QEAW4entity@entt@@AEAW412@@Z
pdata	ENDS
;	COMDAT pdata
pdata	SEGMENT
$pdata$??$?8W4entity@entt@@@null@internal@entt@@QEBA_NW4entity@2@@Z DD imagerel $LN5
	DD	imagerel $LN5+148
	DD	imagerel $unwind$??$?8W4entity@entt@@@null@internal@entt@@QEBA_NW4entity@2@@Z
pdata	ENDS
;	COMDAT pdata
pdata	SEGMENT
$pdata$?value@?$type_index@UTransformComponent@Immortal@@X@entt@@SAIXZ DD imagerel $LN4
	DD	imagerel $LN4+139
	DD	imagerel $unwind$?value@?$type_index@UTransformComponent@Immortal@@X@entt@@SAIXZ
pdata	ENDS
;	COMDAT pdata
pdata	SEGMENT
$pdata$??R?$default_delete@V?$sparse_set@W4entity@entt@@@entt@@@std@@QEBAXPEAV?$sparse_set@W4entity@entt@@@entt@@@Z DD imagerel $LN5
	DD	imagerel $LN5+151
	DD	imagerel $unwind$??R?$default_delete@V?$sparse_set@W4entity@entt@@@entt@@@std@@QEBAXPEAV?$sparse_set@W4entity@entt@@@entt@@@Z
pdata	ENDS
;	COMDAT pdata
pdata	SEGMENT
$pdata$??1?$unique_ptr@V?$sparse_set@W4entity@entt@@@entt@@U?$default_delete@V?$sparse_set@W4entity@entt@@@entt@@@std@@@std@@QEAA@XZ DD imagerel $LN4
	DD	imagerel $LN4+135
	DD	imagerel $unwind$??1?$unique_ptr@V?$sparse_set@W4entity@entt@@@entt@@U?$default_delete@V?$sparse_set@W4entity@entt@@@entt@@@std@@@std@@QEAA@XZ
pdata	ENDS
;	COMDAT pdata
pdata	SEGMENT
$pdata$?get_deleter@?$unique_ptr@V?$sparse_set@W4entity@entt@@@entt@@U?$default_delete@V?$sparse_set@W4entity@entt@@@entt@@@std@@@std@@QEAAAEAU?$default_delete@V?$sparse_set@W4entity@entt@@@entt@@@2@XZ DD imagerel $LN3
	DD	imagerel $LN3+79
	DD	imagerel $unwind$?get_deleter@?$unique_ptr@V?$sparse_set@W4entity@entt@@@entt@@U?$default_delete@V?$sparse_set@W4entity@entt@@@entt@@@std@@@std@@QEAAAEAU?$default_delete@V?$sparse_set@W4entity@entt@@@entt@@@2@XZ
pdata	ENDS
;	COMDAT pdata
pdata	SEGMENT
$pdata$??D?$unique_ptr@V?$sparse_set@W4entity@entt@@@entt@@U?$default_delete@V?$sparse_set@W4entity@entt@@@entt@@@std@@@std@@QEBAAEAV?$sparse_set@W4entity@entt@@@entt@@XZ DD imagerel $LN3
	DD	imagerel $LN3+74
	DD	imagerel $unwind$??D?$unique_ptr@V?$sparse_set@W4entity@entt@@@entt@@U?$default_delete@V?$sparse_set@W4entity@entt@@@entt@@@std@@@std@@QEBAAEAV?$sparse_set@W4entity@entt@@@entt@@XZ
pdata	ENDS
;	COMDAT pdata
pdata	SEGMENT
$pdata$??B?$unique_ptr@V?$sparse_set@W4entity@entt@@@entt@@U?$default_delete@V?$sparse_set@W4entity@entt@@@entt@@@std@@@std@@QEBA_NXZ DD imagerel $LN5
	DD	imagerel $LN5+100
	DD	imagerel $unwind$??B?$unique_ptr@V?$sparse_set@W4entity@entt@@@entt@@U?$default_delete@V?$sparse_set@W4entity@entt@@@entt@@@std@@@std@@QEBA_NXZ
pdata	ENDS
;	COMDAT pdata
pdata	SEGMENT
$pdata$?release@?$unique_ptr@V?$sparse_set@W4entity@entt@@@entt@@U?$default_delete@V?$sparse_set@W4entity@entt@@@entt@@@std@@@std@@QEAAPEAV?$sparse_set@W4entity@entt@@@entt@@XZ DD imagerel $LN3
	DD	imagerel $LN3+97
	DD	imagerel $unwind$?release@?$unique_ptr@V?$sparse_set@W4entity@entt@@@entt@@U?$default_delete@V?$sparse_set@W4entity@entt@@@entt@@@std@@@std@@QEAAPEAV?$sparse_set@W4entity@entt@@@entt@@XZ
pdata	ENDS
;	COMDAT pdata
pdata	SEGMENT
$pdata$?reset@?$unique_ptr@V?$sparse_set@W4entity@entt@@@entt@@U?$default_delete@V?$sparse_set@W4entity@entt@@@entt@@@std@@@std@@QEAAXPEAV?$sparse_set@W4entity@entt@@@entt@@@Z DD imagerel $LN4
	DD	imagerel $LN4+140
	DD	imagerel $unwind$?reset@?$unique_ptr@V?$sparse_set@W4entity@entt@@@entt@@U?$default_delete@V?$sparse_set@W4entity@entt@@@entt@@@std@@@std@@QEAAXPEAV?$sparse_set@W4entity@entt@@@entt@@@Z
pdata	ENDS
;	COMDAT pdata
pdata	SEGMENT
$pdata$?_Get_first@?$_Compressed_pair@U?$default_delete@V?$sparse_set@W4entity@entt@@@entt@@@std@@PEAV?$sparse_set@W4entity@entt@@@entt@@$00@std@@QEAAAEAU?$default_delete@V?$sparse_set@W4entity@entt@@@entt@@@2@XZ DD imagerel $LN3
	DD	imagerel $LN3+71
	DD	imagerel $unwind$?_Get_first@?$_Compressed_pair@U?$default_delete@V?$sparse_set@W4entity@entt@@@entt@@@std@@PEAV?$sparse_set@W4entity@entt@@@entt@@$00@std@@QEAAAEAU?$default_delete@V?$sparse_set@W4entity@entt@@@entt@@@2@XZ
pdata	ENDS
;	COMDAT pdata
pdata	SEGMENT
$pdata$??$?0U?$default_delete@V?$sparse_set@W4entity@entt@@@entt@@@std@@$0A@@?$unique_ptr@V?$sparse_set@W4entity@entt@@@entt@@U?$default_delete@V?$sparse_set@W4entity@entt@@@entt@@@std@@@std@@QEAA@$$QEAV01@@Z DD imagerel $LN3
	DD	imagerel $LN3+182
	DD	imagerel $unwind$??$?0U?$default_delete@V?$sparse_set@W4entity@entt@@@entt@@@std@@$0A@@?$unique_ptr@V?$sparse_set@W4entity@entt@@@entt@@U?$default_delete@V?$sparse_set@W4entity@entt@@@entt@@@std@@@std@@QEAA@$$QEAV01@@Z
pdata	ENDS
;	COMDAT pdata
pdata	SEGMENT
$pdata$??0pool_data@?$basic_registry@W4entity@entt@@@entt@@QEAA@XZ DD imagerel $LN3
	DD	imagerel $LN3+106
	DD	imagerel $unwind$??0pool_data@?$basic_registry@W4entity@entt@@@entt@@QEAA@XZ
pdata	ENDS
;	COMDAT pdata
pdata	SEGMENT
$pdata$??1pool_data@?$basic_registry@W4entity@entt@@@entt@@QEAA@XZ DD imagerel $LN3
	DD	imagerel $LN3+71
	DD	imagerel $unwind$??1pool_data@?$basic_registry@W4entity@entt@@@entt@@QEAA@XZ
pdata	ENDS
;	COMDAT pdata
pdata	SEGMENT
$pdata$??0pool_data@?$basic_registry@W4entity@entt@@@entt@@QEAA@$$QEAU012@@Z DD imagerel $LN3
	DD	imagerel $LN3+148
	DD	imagerel $unwind$??0pool_data@?$basic_registry@W4entity@entt@@@entt@@QEAA@$$QEAU012@@Z
pdata	ENDS
;	COMDAT pdata
pdata	SEGMENT
$pdata$??_Gpool_data@?$basic_registry@W4entity@entt@@@entt@@QEAAPEAXI@Z DD imagerel $LN4
	DD	imagerel $LN4+105
	DD	imagerel $unwind$??_Gpool_data@?$basic_registry@W4entity@entt@@@entt@@QEAAPEAXI@Z
pdata	ENDS
;	COMDAT pdata
pdata	SEGMENT
$pdata$?id@?$type_info@UTransformComponent@Immortal@@X@entt@@SAIXZ DD imagerel $LN3
	DD	imagerel $LN3+64
	DD	imagerel $unwind$?id@?$type_info@UTransformComponent@Immortal@@X@entt@@SAIXZ
pdata	ENDS
;	COMDAT pdata
pdata	SEGMENT
$pdata$??R<lambda_53fa40d52f5baf1e8ae478abaa8f009b>@@QEBAXAEAV?$sparse_set@W4entity@entt@@@entt@@AEAV?$basic_registry@W4entity@entt@@@2@W4entity@2@@Z DD imagerel $LN3
	DD	imagerel $LN3+105
	DD	imagerel $unwind$??R<lambda_53fa40d52f5baf1e8ae478abaa8f009b>@@QEBAXAEAV?$sparse_set@W4entity@entt@@@entt@@AEAV?$basic_registry@W4entity@entt@@@2@W4entity@2@@Z
pdata	ENDS
;	COMDAT pdata
pdata	SEGMENT
$pdata$?<lambda_invoker_cdecl>@<lambda_53fa40d52f5baf1e8ae478abaa8f009b>@@CAXAEAV?$sparse_set@W4entity@entt@@@entt@@AEAV?$basic_registry@W4entity@entt@@@3@W4entity@3@@Z DD imagerel $LN3
	DD	imagerel $LN3+102
	DD	imagerel $unwind$?<lambda_invoker_cdecl>@<lambda_53fa40d52f5baf1e8ae478abaa8f009b>@@CAXAEAV?$sparse_set@W4entity@entt@@@entt@@AEAV?$basic_registry@W4entity@entt@@@3@W4entity@3@@Z
pdata	ENDS
;	COMDAT pdata
pdata	SEGMENT
$pdata$??B<lambda_53fa40d52f5baf1e8ae478abaa8f009b>@@QEBAP6AXAEAV?$sparse_set@W4entity@entt@@@entt@@AEAV?$basic_registry@W4entity@entt@@@2@W4entity@2@@ZXZ DD imagerel $LN3
	DD	imagerel $LN3+71
	DD	imagerel $unwind$??B<lambda_53fa40d52f5baf1e8ae478abaa8f009b>@@QEBAP6AXAEAV?$sparse_set@W4entity@entt@@@entt@@AEAV?$basic_registry@W4entity@entt@@@2@W4entity@2@@ZXZ
pdata	ENDS
;	COMDAT pdata
pdata	SEGMENT
$pdata$??$exchange@PEAV?$sparse_set@W4entity@entt@@@entt@@AEAPEAV12@@std@@YAPEAV?$sparse_set@W4entity@entt@@@entt@@AEAPEAV12@0@Z DD imagerel $LN3
	DD	imagerel $LN3+107
	DD	imagerel $unwind$??$exchange@PEAV?$sparse_set@W4entity@entt@@@entt@@AEAPEAV12@@std@@YAPEAV?$sparse_set@W4entity@entt@@@entt@@AEAPEAV12@0@Z
pdata	ENDS
;	COMDAT pdata
pdata	SEGMENT
$pdata$??$?0V?$delegate@$$A6AXAEAV?$basic_registry@W4entity@entt@@@entt@@W4entity@2@@Z@entt@@@?$allocator@U_Container_proxy@std@@@std@@QEAA@AEBV?$allocator@V?$delegate@$$A6AXAEAV?$basic_registry@W4entity@entt@@@entt@@W4entity@2@@Z@entt@@@1@@Z DD imagerel $LN3
	DD	imagerel $LN3+76
	DD	imagerel $unwind$??$?0V?$delegate@$$A6AXAEAV?$basic_registry@W4entity@entt@@@entt@@W4entity@2@@Z@entt@@@?$allocator@U_Container_proxy@std@@@std@@QEAA@AEBV?$allocator@V?$delegate@$$A6AXAEAV?$basic_registry@W4entity@entt@@@entt@@W4entity@2@@Z@entt@@@1@@Z
pdata	ENDS
;	COMDAT pdata
pdata	SEGMENT
$pdata$??$?0$$V@?$_Compressed_pair@V?$allocator@V?$delegate@$$A6AXAEAV?$basic_registry@W4entity@entt@@@entt@@W4entity@2@@Z@entt@@@std@@V?$_Vector_val@U?$_Simple_types@V?$delegate@$$A6AXAEAV?$basic_registry@W4entity@entt@@@entt@@W4entity@2@@Z@entt@@@std@@@2@$00@std@@QEAA@U_Zero_then_variadic_args_t@1@@Z DD imagerel $LN3
	DD	imagerel $LN3+102
	DD	imagerel $unwind$??$?0$$V@?$_Compressed_pair@V?$allocator@V?$delegate@$$A6AXAEAV?$basic_registry@W4entity@entt@@@entt@@W4entity@2@@Z@entt@@@std@@V?$_Vector_val@U?$_Simple_types@V?$delegate@$$A6AXAEAV?$basic_registry@W4entity@entt@@@entt@@W4entity@2@@Z@entt@@@std@@@2@$00@std@@QEAA@U_Zero_then_variadic_args_t@1@@Z
pdata	ENDS
;	COMDAT pdata
pdata	SEGMENT
$pdata$??$?0UTransformComponent@Immortal@@@?$allocator@U_Container_proxy@std@@@std@@QEAA@AEBV?$allocator@UTransformComponent@Immortal@@@1@@Z DD imagerel $LN3
	DD	imagerel $LN3+76
	DD	imagerel $unwind$??$?0UTransformComponent@Immortal@@@?$allocator@U_Container_proxy@std@@@std@@QEAA@AEBV?$allocator@UTransformComponent@Immortal@@@1@@Z
pdata	ENDS
;	COMDAT pdata
pdata	SEGMENT
$pdata$??$?0$$V@?$_Compressed_pair@V?$allocator@UTransformComponent@Immortal@@@std@@V?$_Vector_val@U?$_Simple_types@UTransformComponent@Immortal@@@std@@@2@$00@std@@QEAA@U_Zero_then_variadic_args_t@1@@Z DD imagerel $LN3
	DD	imagerel $LN3+102
	DD	imagerel $unwind$??$?0$$V@?$_Compressed_pair@V?$allocator@UTransformComponent@Immortal@@@std@@V?$_Vector_val@U?$_Simple_types@UTransformComponent@Immortal@@@std@@@2@$00@std@@QEAA@U_Zero_then_variadic_args_t@1@@Z
pdata	ENDS
;	COMDAT pdata
pdata	SEGMENT
$pdata$??$?0V?$unique_ptr@$$BY0A@W4entity@entt@@U?$default_delete@$$BY0A@W4entity@entt@@@std@@@std@@@?$allocator@U_Container_proxy@std@@@std@@QEAA@AEBV?$allocator@V?$unique_ptr@$$BY0A@W4entity@entt@@U?$default_delete@$$BY0A@W4entity@entt@@@std@@@std@@@1@@Z DD imagerel $LN3
	DD	imagerel $LN3+76
	DD	imagerel $unwind$??$?0V?$unique_ptr@$$BY0A@W4entity@entt@@U?$default_delete@$$BY0A@W4entity@entt@@@std@@@std@@@?$allocator@U_Container_proxy@std@@@std@@QEAA@AEBV?$allocator@V?$unique_ptr@$$BY0A@W4entity@entt@@U?$default_delete@$$BY0A@W4entity@entt@@@std@@@std@@@1@@Z
pdata	ENDS
;	COMDAT pdata
pdata	SEGMENT
$pdata$??$?0$$V@?$_Compressed_pair@V?$allocator@V?$unique_ptr@$$BY0A@W4entity@entt@@U?$default_delete@$$BY0A@W4entity@entt@@@std@@@std@@@std@@V?$_Vector_val@U?$_Simple_types@V?$unique_ptr@$$BY0A@W4entity@entt@@U?$default_delete@$$BY0A@W4entity@entt@@@std@@@std@@@std@@@2@$00@std@@QEAA@U_Zero_then_variadic_args_t@1@@Z DD imagerel $LN3
	DD	imagerel $LN3+102
	DD	imagerel $unwind$??$?0$$V@?$_Compressed_pair@V?$allocator@V?$unique_ptr@$$BY0A@W4entity@entt@@U?$default_delete@$$BY0A@W4entity@entt@@@std@@@std@@@std@@V?$_Vector_val@U?$_Simple_types@V?$unique_ptr@$$BY0A@W4entity@entt@@U?$default_delete@$$BY0A@W4entity@entt@@@std@@@std@@@std@@@2@$00@std@@QEAA@U_Zero_then_variadic_args_t@1@@Z
pdata	ENDS
;	COMDAT pdata
pdata	SEGMENT
$pdata$??$?0W4entity@entt@@@?$allocator@U_Container_proxy@std@@@std@@QEAA@AEBV?$allocator@W4entity@entt@@@1@@Z DD imagerel $LN3
	DD	imagerel $LN3+76
	DD	imagerel $unwind$??$?0W4entity@entt@@@?$allocator@U_Container_proxy@std@@@std@@QEAA@AEBV?$allocator@W4entity@entt@@@1@@Z
pdata	ENDS
;	COMDAT pdata
pdata	SEGMENT
$pdata$??$?0$$V@?$_Compressed_pair@V?$allocator@W4entity@entt@@@std@@V?$_Vector_val@U?$_Simple_types@W4entity@entt@@@std@@@2@$00@std@@QEAA@U_Zero_then_variadic_args_t@1@@Z DD imagerel $LN3
	DD	imagerel $LN3+102
	DD	imagerel $unwind$??$?0$$V@?$_Compressed_pair@V?$allocator@W4entity@entt@@@std@@V?$_Vector_val@U?$_Simple_types@W4entity@entt@@@std@@@2@$00@std@@QEAA@U_Zero_then_variadic_args_t@1@@Z
pdata	ENDS
;	COMDAT pdata
pdata	SEGMENT
$pdata$??$_Resize@U_Value_init_tag@std@@@?$vector@Upool_data@?$basic_registry@W4entity@entt@@@entt@@V?$allocator@Upool_data@?$basic_registry@W4entity@entt@@@entt@@@std@@@std@@AEAAX_KAEBU_Value_init_tag@1@@Z DD imagerel $LN6
	DD	imagerel $LN6+439
	DD	imagerel $unwind$??$_Resize@U_Value_init_tag@std@@@?$vector@Upool_data@?$basic_registry@W4entity@entt@@@entt@@V?$allocator@Upool_data@?$basic_registry@W4entity@entt@@@entt@@@std@@@std@@AEAAX_KAEBU_Value_init_tag@1@@Z
pdata	ENDS
;	COMDAT pdata
pdata	SEGMENT
$pdata$??R?$delegate@$$A6AXAEAV?$basic_registry@W4entity@entt@@@entt@@W4entity@2@@Z@entt@@QEBAXAEAV?$basic_registry@W4entity@entt@@@1@W4entity@1@@Z DD imagerel $LN4
	DD	imagerel $LN4+216
	DD	imagerel $unwind$??R?$delegate@$$A6AXAEAV?$basic_registry@W4entity@entt@@@entt@@W4entity@2@@Z@entt@@QEBAXAEAV?$basic_registry@W4entity@entt@@@1@W4entity@1@@Z
pdata	ENDS
;	COMDAT pdata
pdata	SEGMENT
$pdata$??$as_const@$$CBV?$vector@V?$delegate@$$A6AXAEAV?$basic_registry@W4entity@entt@@@entt@@W4entity@2@@Z@entt@@V?$allocator@V?$delegate@$$A6AXAEAV?$basic_registry@W4entity@entt@@@entt@@W4entity@2@@Z@entt@@@std@@@std@@@std@@YAAEBV?$vector@V?$delegate@$$A6AXAEAV?$basic_registry@W4entity@entt@@@entt@@W4entity@2@@Z@entt@@V?$allocator@V?$delegate@$$A6AXAEAV?$basic_registry@W4entity@entt@@@entt@@W4entity@2@@Z@entt@@@std@@@0@AEBV10@@Z DD imagerel $LN3
	DD	imagerel $LN3+71
	DD	imagerel $unwind$??$as_const@$$CBV?$vector@V?$delegate@$$A6AXAEAV?$basic_registry@W4entity@entt@@@entt@@W4entity@2@@Z@entt@@V?$allocator@V?$delegate@$$A6AXAEAV?$basic_registry@W4entity@entt@@@entt@@W4entity@2@@Z@entt@@@std@@@std@@@std@@YAAEBV?$vector@V?$delegate@$$A6AXAEAV?$basic_registry@W4entity@entt@@@entt@@W4entity@2@@Z@entt@@V?$allocator@V?$delegate@$$A6AXAEAV?$basic_registry@W4entity@entt@@@entt@@W4entity@2@@Z@entt@@@std@@@0@AEBV10@@Z
pdata	ENDS
;	COMDAT pdata
pdata	SEGMENT
$pdata$??$forward@AEAV?$basic_registry@W4entity@entt@@@entt@@@std@@YAAEAV?$basic_registry@W4entity@entt@@@entt@@AEAV12@@Z DD imagerel $LN3
	DD	imagerel $LN3+71
	DD	imagerel $unwind$??$forward@AEAV?$basic_registry@W4entity@entt@@@entt@@@std@@YAAEAV?$basic_registry@W4entity@entt@@@entt@@AEAV12@@Z
pdata	ENDS
;	COMDAT pdata
pdata	SEGMENT
$pdata$??$forward@W4entity@entt@@@std@@YA$$QEAW4entity@entt@@AEAW412@@Z DD imagerel $LN3
	DD	imagerel $LN3+71
	DD	imagerel $unwind$??$forward@W4entity@entt@@@std@@YA$$QEAW4entity@entt@@AEAW412@@Z
pdata	ENDS
;	COMDAT pdata
pdata	SEGMENT
$pdata$??$_Destroy_range@V?$allocator@V?$delegate@$$A6AXAEAV?$basic_registry@W4entity@entt@@@entt@@W4entity@2@@Z@entt@@@std@@@std@@YAXPEAV?$delegate@$$A6AXAEAV?$basic_registry@W4entity@entt@@@entt@@W4entity@2@@Z@entt@@QEAV12@AEAV?$allocator@V?$delegate@$$A6AXAEAV?$basic_registry@W4entity@entt@@@entt@@W4entity@2@@Z@entt@@@0@@Z DD imagerel $LN3
	DD	imagerel $LN3+74
	DD	imagerel $unwind$??$_Destroy_range@V?$allocator@V?$delegate@$$A6AXAEAV?$basic_registry@W4entity@entt@@@entt@@W4entity@2@@Z@entt@@@std@@@std@@YAXPEAV?$delegate@$$A6AXAEAV?$basic_registry@W4entity@entt@@@entt@@W4entity@2@@Z@entt@@QEAV12@AEAV?$allocator@V?$delegate@$$A6AXAEAV?$basic_registry@W4entity@entt@@@entt@@W4entity@2@@Z@entt@@@0@@Z
pdata	ENDS
;	COMDAT pdata
pdata	SEGMENT
$pdata$??$_Destroy_range@V?$allocator@UTransformComponent@Immortal@@@std@@@std@@YAXPEAUTransformComponent@Immortal@@QEAU12@AEAV?$allocator@UTransformComponent@Immortal@@@0@@Z DD imagerel $LN3
	DD	imagerel $LN3+74
	DD	imagerel $unwind$??$_Destroy_range@V?$allocator@UTransformComponent@Immortal@@@std@@@std@@YAXPEAUTransformComponent@Immortal@@QEAU12@AEAV?$allocator@UTransformComponent@Immortal@@@0@@Z
pdata	ENDS
;	COMDAT pdata
pdata	SEGMENT
$pdata$??$_Unfancy@UTransformComponent@Immortal@@@std@@YAPEAUTransformComponent@Immortal@@PEAU12@@Z DD imagerel $LN3
	DD	imagerel $LN3+71
	DD	imagerel $unwind$??$_Unfancy@UTransformComponent@Immortal@@@std@@YAPEAUTransformComponent@Immortal@@PEAU12@@Z
pdata	ENDS
;	COMDAT pdata
pdata	SEGMENT
$pdata$??$destroy@UTransformComponent@Immortal@@@?$_Default_allocator_traits@V?$allocator@UTransformComponent@Immortal@@@std@@@std@@SAXAEAV?$allocator@UTransformComponent@Immortal@@@1@QEAUTransformComponent@Immortal@@@Z DD imagerel $LN3
	DD	imagerel $LN3+69
	DD	imagerel $unwind$??$destroy@UTransformComponent@Immortal@@@?$_Default_allocator_traits@V?$allocator@UTransformComponent@Immortal@@@std@@@std@@SAXAEAV?$allocator@UTransformComponent@Immortal@@@1@QEAUTransformComponent@Immortal@@@Z
pdata	ENDS
;	COMDAT pdata
pdata	SEGMENT
$pdata$??$_Destroy_range@V?$allocator@V?$unique_ptr@$$BY0A@W4entity@entt@@U?$default_delete@$$BY0A@W4entity@entt@@@std@@@std@@@std@@@std@@YAXPEAV?$unique_ptr@$$BY0A@W4entity@entt@@U?$default_delete@$$BY0A@W4entity@entt@@@std@@@0@QEAV10@AEAV?$allocator@V?$unique_ptr@$$BY0A@W4entity@entt@@U?$default_delete@$$BY0A@W4entity@entt@@@std@@@std@@@0@@Z DD imagerel $LN6
	DD	imagerel $LN6+139
	DD	imagerel $unwind$??$_Destroy_range@V?$allocator@V?$unique_ptr@$$BY0A@W4entity@entt@@U?$default_delete@$$BY0A@W4entity@entt@@@std@@@std@@@std@@@std@@YAXPEAV?$unique_ptr@$$BY0A@W4entity@entt@@U?$default_delete@$$BY0A@W4entity@entt@@@std@@@0@QEAV10@AEAV?$allocator@V?$unique_ptr@$$BY0A@W4entity@entt@@U?$default_delete@$$BY0A@W4entity@entt@@@std@@@std@@@0@@Z
pdata	ENDS
;	COMDAT pdata
pdata	SEGMENT
$pdata$??$_Destroy_range@V?$allocator@W4entity@entt@@@std@@@std@@YAXPEAW4entity@entt@@QEAW412@AEAV?$allocator@W4entity@entt@@@0@@Z DD imagerel $LN3
	DD	imagerel $LN3+74
	DD	imagerel $unwind$??$_Destroy_range@V?$allocator@W4entity@entt@@@std@@@std@@YAXPEAW4entity@entt@@QEAW412@AEAV?$allocator@W4entity@entt@@@0@@Z
pdata	ENDS
;	COMDAT pdata
pdata	SEGMENT
$pdata$??$_Unfancy@W4entity@entt@@@std@@YAPEAW4entity@entt@@PEAW412@@Z DD imagerel $LN3
	DD	imagerel $LN3+71
	DD	imagerel $unwind$??$_Unfancy@W4entity@entt@@@std@@YAPEAW4entity@entt@@PEAW412@@Z
pdata	ENDS
;	COMDAT pdata
pdata	SEGMENT
$pdata$??$destroy@W4entity@entt@@@?$_Default_allocator_traits@V?$allocator@W4entity@entt@@@std@@@std@@SAXAEAV?$allocator@W4entity@entt@@@1@QEAW4entity@entt@@@Z DD imagerel $LN3
	DD	imagerel $LN3+69
	DD	imagerel $unwind$??$destroy@W4entity@entt@@@?$_Default_allocator_traits@V?$allocator@W4entity@entt@@@std@@@std@@SAXAEAV?$allocator@W4entity@entt@@@1@QEAW4entity@entt@@@Z
pdata	ENDS
;	COMDAT pdata
pdata	SEGMENT
$pdata$??$_Resize_reallocate@U_Value_init_tag@std@@@?$vector@Upool_data@?$basic_registry@W4entity@entt@@@entt@@V?$allocator@Upool_data@?$basic_registry@W4entity@entt@@@entt@@@std@@@std@@AEAAX_KAEBU_Value_init_tag@1@@Z DD imagerel $LN11
	DD	imagerel $LN11+416
	DD	imagerel $unwind$??$_Resize_reallocate@U_Value_init_tag@std@@@?$vector@Upool_data@?$basic_registry@W4entity@entt@@@entt@@V?$allocator@Upool_data@?$basic_registry@W4entity@entt@@@entt@@@std@@@std@@AEAAX_KAEBU_Value_init_tag@1@@Z
pdata	ENDS
;	COMDAT pdata
pdata	SEGMENT
$pdata$?catch$0@?0???$_Resize_reallocate@U_Value_init_tag@std@@@?$vector@Upool_data@?$basic_registry@W4entity@entt@@@entt@@V?$allocator@Upool_data@?$basic_registry@W4entity@entt@@@entt@@@std@@@std@@AEAAX_KAEBU_Value_init_tag@1@@Z@4HA DD imagerel ?catch$0@?0???$_Resize_reallocate@U_Value_init_tag@std@@@?$vector@Upool_data@?$basic_registry@W4entity@entt@@@entt@@V?$allocator@Upool_data@?$basic_registry@W4entity@entt@@@entt@@@std@@@std@@AEAAX_KAEBU_Value_init_tag@1@@Z@4HA
	DD	imagerel ?catch$0@?0???$_Resize_reallocate@U_Value_init_tag@std@@@?$vector@Upool_data@?$basic_registry@W4entity@entt@@@entt@@V?$allocator@Upool_data@?$basic_registry@W4entity@entt@@@entt@@@std@@@std@@AEAAX_KAEBU_Value_init_tag@1@@Z@4HA+116
	DD	imagerel $unwind$?catch$0@?0???$_Resize_reallocate@U_Value_init_tag@std@@@?$vector@Upool_data@?$basic_registry@W4entity@entt@@@entt@@V?$allocator@Upool_data@?$basic_registry@W4entity@entt@@@entt@@@std@@@std@@AEAAX_KAEBU_Value_init_tag@1@@Z@4HA
pdata	ENDS
;	COMDAT pdata
pdata	SEGMENT
$pdata$??$_Unfancy@V?$unique_ptr@$$BY0A@W4entity@entt@@U?$default_delete@$$BY0A@W4entity@entt@@@std@@@std@@@std@@YAPEAV?$unique_ptr@$$BY0A@W4entity@entt@@U?$default_delete@$$BY0A@W4entity@entt@@@std@@@0@PEAV10@@Z DD imagerel $LN3
	DD	imagerel $LN3+71
	DD	imagerel $unwind$??$_Unfancy@V?$unique_ptr@$$BY0A@W4entity@entt@@U?$default_delete@$$BY0A@W4entity@entt@@@std@@@std@@@std@@YAPEAV?$unique_ptr@$$BY0A@W4entity@entt@@U?$default_delete@$$BY0A@W4entity@entt@@@std@@@0@PEAV10@@Z
pdata	ENDS
;	COMDAT pdata
pdata	SEGMENT
$pdata$??$destroy@V?$unique_ptr@$$BY0A@W4entity@entt@@U?$default_delete@$$BY0A@W4entity@entt@@@std@@@std@@@?$_Default_allocator_traits@V?$allocator@V?$unique_ptr@$$BY0A@W4entity@entt@@U?$default_delete@$$BY0A@W4entity@entt@@@std@@@std@@@std@@@std@@SAXAEAV?$allocator@V?$unique_ptr@$$BY0A@W4entity@entt@@U?$default_delete@$$BY0A@W4entity@entt@@@std@@@std@@@1@QEAV?$unique_ptr@$$BY0A@W4entity@entt@@U?$default_delete@$$BY0A@W4entity@entt@@@std@@@1@@Z DD imagerel $LN3
	DD	imagerel $LN3+83
	DD	imagerel $unwind$??$destroy@V?$unique_ptr@$$BY0A@W4entity@entt@@U?$default_delete@$$BY0A@W4entity@entt@@@std@@@std@@@?$_Default_allocator_traits@V?$allocator@V?$unique_ptr@$$BY0A@W4entity@entt@@U?$default_delete@$$BY0A@W4entity@entt@@@std@@@std@@@std@@@std@@SAXAEAV?$allocator@V?$unique_ptr@$$BY0A@W4entity@entt@@U?$default_delete@$$BY0A@W4entity@entt@@@std@@@std@@@1@QEAV?$unique_ptr@$$BY0A@W4entity@entt@@U?$default_delete@$$BY0A@W4entity@entt@@@std@@@1@@Z
pdata	ENDS
;	COMDAT pdata
pdata	SEGMENT
$pdata$??$_Destroy_range@V?$allocator@Upool_data@?$basic_registry@W4entity@entt@@@entt@@@std@@@std@@YAXPEAUpool_data@?$basic_registry@W4entity@entt@@@entt@@QEAU123@AEAV?$allocator@Upool_data@?$basic_registry@W4entity@entt@@@entt@@@0@@Z DD imagerel $LN6
	DD	imagerel $LN6+139
	DD	imagerel $unwind$??$_Destroy_range@V?$allocator@Upool_data@?$basic_registry@W4entity@entt@@@entt@@@std@@@std@@YAXPEAUpool_data@?$basic_registry@W4entity@entt@@@entt@@QEAU123@AEAV?$allocator@Upool_data@?$basic_registry@W4entity@entt@@@entt@@@0@@Z
pdata	ENDS
;	COMDAT pdata
pdata	SEGMENT
$pdata$??$_Uninitialized_value_construct_n@V?$allocator@Upool_data@?$basic_registry@W4entity@entt@@@entt@@@std@@@std@@YAPEAUpool_data@?$basic_registry@W4entity@entt@@@entt@@PEAU123@_KAEAV?$allocator@Upool_data@?$basic_registry@W4entity@entt@@@entt@@@0@@Z DD imagerel $LN7
	DD	imagerel $LN7+192
	DD	imagerel $unwind$??$_Uninitialized_value_construct_n@V?$allocator@Upool_data@?$basic_registry@W4entity@entt@@@entt@@@std@@@std@@YAPEAUpool_data@?$basic_registry@W4entity@entt@@@entt@@PEAU123@_KAEAV?$allocator@Upool_data@?$basic_registry@W4entity@entt@@@entt@@@0@@Z
pdata	ENDS
;	COMDAT pdata
pdata	SEGMENT
$pdata$?dtor$0@?0???$_Uninitialized_value_construct_n@V?$allocator@Upool_data@?$basic_registry@W4entity@entt@@@entt@@@std@@@std@@YAPEAUpool_data@?$basic_registry@W4entity@entt@@@entt@@PEAU123@_KAEAV?$allocator@Upool_data@?$basic_registry@W4entity@entt@@@entt@@@0@@Z@4HA DD imagerel ?dtor$0@?0???$_Uninitialized_value_construct_n@V?$allocator@Upool_data@?$basic_registry@W4entity@entt@@@entt@@@std@@@std@@YAPEAUpool_data@?$basic_registry@W4entity@entt@@@entt@@PEAU123@_KAEAV?$allocator@Upool_data@?$basic_registry@W4entity@entt@@@entt@@@0@@Z@4HA
	DD	imagerel ?dtor$0@?0???$_Uninitialized_value_construct_n@V?$allocator@Upool_data@?$basic_registry@W4entity@entt@@@entt@@@std@@@std@@YAPEAUpool_data@?$basic_registry@W4entity@entt@@@entt@@PEAU123@_KAEAV?$allocator@Upool_data@?$basic_registry@W4entity@entt@@@entt@@@0@@Z@4HA+36
	DD	imagerel $unwind$?dtor$0@?0???$_Uninitialized_value_construct_n@V?$allocator@Upool_data@?$basic_registry@W4entity@entt@@@entt@@@std@@@std@@YAPEAUpool_data@?$basic_registry@W4entity@entt@@@entt@@PEAU123@_KAEAV?$allocator@Upool_data@?$basic_registry@W4entity@entt@@@entt@@@0@@Z@4HA
pdata	ENDS
;	COMDAT pdata
pdata	SEGMENT
$pdata$??$_Unfancy@Upool_data@?$basic_registry@W4entity@entt@@@entt@@@std@@YAPEAUpool_data@?$basic_registry@W4entity@entt@@@entt@@PEAU123@@Z DD imagerel $LN3
	DD	imagerel $LN3+71
	DD	imagerel $unwind$??$_Unfancy@Upool_data@?$basic_registry@W4entity@entt@@@entt@@@std@@YAPEAUpool_data@?$basic_registry@W4entity@entt@@@entt@@PEAU123@@Z
pdata	ENDS
;	COMDAT pdata
pdata	SEGMENT
$pdata$??$destroy@Upool_data@?$basic_registry@W4entity@entt@@@entt@@@?$_Default_allocator_traits@V?$allocator@Upool_data@?$basic_registry@W4entity@entt@@@entt@@@std@@@std@@SAXAEAV?$allocator@Upool_data@?$basic_registry@W4entity@entt@@@entt@@@1@QEAUpool_data@?$basic_registry@W4entity@entt@@@entt@@@Z DD imagerel $LN3
	DD	imagerel $LN3+83
	DD	imagerel $unwind$??$destroy@Upool_data@?$basic_registry@W4entity@entt@@@entt@@@?$_Default_allocator_traits@V?$allocator@Upool_data@?$basic_registry@W4entity@entt@@@entt@@@std@@@std@@SAXAEAV?$allocator@Upool_data@?$basic_registry@W4entity@entt@@@entt@@@1@QEAUpool_data@?$basic_registry@W4entity@entt@@@entt@@@Z
pdata	ENDS
;	COMDAT pdata
pdata	SEGMENT
$pdata$??0?$_Uninitialized_backout_al@V?$allocator@Upool_data@?$basic_registry@W4entity@entt@@@entt@@@std@@@std@@QEAA@PEAUpool_data@?$basic_registry@W4entity@entt@@@entt@@AEAV?$allocator@Upool_data@?$basic_registry@W4entity@entt@@@entt@@@1@@Z DD imagerel $LN3
	DD	imagerel $LN3+134
	DD	imagerel $unwind$??0?$_Uninitialized_backout_al@V?$allocator@Upool_data@?$basic_registry@W4entity@entt@@@entt@@@std@@@std@@QEAA@PEAUpool_data@?$basic_registry@W4entity@entt@@@entt@@AEAV?$allocator@Upool_data@?$basic_registry@W4entity@entt@@@entt@@@1@@Z
pdata	ENDS
;	COMDAT pdata
pdata	SEGMENT
$pdata$??1?$_Uninitialized_backout_al@V?$allocator@Upool_data@?$basic_registry@W4entity@entt@@@entt@@@std@@@std@@QEAA@XZ DD imagerel $LN3
	DD	imagerel $LN3+101
	DD	imagerel $unwind$??1?$_Uninitialized_backout_al@V?$allocator@Upool_data@?$basic_registry@W4entity@entt@@@entt@@@std@@@std@@QEAA@XZ
pdata	ENDS
;	COMDAT pdata
pdata	SEGMENT
$pdata$?_Release@?$_Uninitialized_backout_al@V?$allocator@Upool_data@?$basic_registry@W4entity@entt@@@entt@@@std@@@std@@QEAAPEAUpool_data@?$basic_registry@W4entity@entt@@@entt@@XZ DD imagerel $LN3
	DD	imagerel $LN3+96
	DD	imagerel $unwind$?_Release@?$_Uninitialized_backout_al@V?$allocator@Upool_data@?$basic_registry@W4entity@entt@@@entt@@@std@@@std@@QEAAPEAUpool_data@?$basic_registry@W4entity@entt@@@entt@@XZ
pdata	ENDS
;	COMDAT pdata
pdata	SEGMENT
$pdata$??$_Emplace_back@$$V@?$_Uninitialized_backout_al@V?$allocator@Upool_data@?$basic_registry@W4entity@entt@@@entt@@@std@@@std@@QEAAXXZ DD imagerel $LN3
	DD	imagerel $LN3+150
	DD	imagerel $unwind$??$_Emplace_back@$$V@?$_Uninitialized_backout_al@V?$allocator@Upool_data@?$basic_registry@W4entity@entt@@@entt@@@std@@@std@@QEAAXXZ
pdata	ENDS
;	COMDAT pdata
pdata	SEGMENT
$pdata$??$?RW4entity@entt@@$0A@@?$default_delete@$$BY0A@W4entity@entt@@@std@@QEBAXPEAW4entity@entt@@@Z DD imagerel $LN3
	DD	imagerel $LN3+95
	DD	imagerel $unwind$??$?RW4entity@entt@@$0A@@?$default_delete@$$BY0A@W4entity@entt@@@std@@QEBAXPEAW4entity@entt@@@Z
pdata	ENDS
;	COMDAT pdata
pdata	SEGMENT
$pdata$??$_Get_size_of_n@$0BI@@std@@YA_K_K@Z DD imagerel $LN4
	DD	imagerel $LN4+114
	DD	imagerel $unwind$??$_Get_size_of_n@$0BI@@std@@YA_K_K@Z
pdata	ENDS
;	COMDAT pdata
pdata	SEGMENT
$pdata$??$_Uninitialized_move@PEAUpool_data@?$basic_registry@W4entity@entt@@@entt@@V?$allocator@Upool_data@?$basic_registry@W4entity@entt@@@entt@@@std@@@std@@YAPEAUpool_data@?$basic_registry@W4entity@entt@@@entt@@QEAU123@0PEAU123@AEAV?$allocator@Upool_data@?$basic_registry@W4entity@entt@@@entt@@@0@@Z DD imagerel $LN7
	DD	imagerel $LN7+236
	DD	imagerel $unwind$??$_Uninitialized_move@PEAUpool_data@?$basic_registry@W4entity@entt@@@entt@@V?$allocator@Upool_data@?$basic_registry@W4entity@entt@@@entt@@@std@@@std@@YAPEAUpool_data@?$basic_registry@W4entity@entt@@@entt@@QEAU123@0PEAU123@AEAV?$allocator@Upool_data@?$basic_registry@W4entity@entt@@@entt@@@0@@Z
pdata	ENDS
;	COMDAT pdata
pdata	SEGMENT
$pdata$?dtor$0@?0???$_Uninitialized_move@PEAUpool_data@?$basic_registry@W4entity@entt@@@entt@@V?$allocator@Upool_data@?$basic_registry@W4entity@entt@@@entt@@@std@@@std@@YAPEAUpool_data@?$basic_registry@W4entity@entt@@@entt@@QEAU123@0PEAU123@AEAV?$allocator@Upool_data@?$basic_registry@W4entity@entt@@@entt@@@0@@Z@4HA DD imagerel ?dtor$0@?0???$_Uninitialized_move@PEAUpool_data@?$basic_registry@W4entity@entt@@@entt@@V?$allocator@Upool_data@?$basic_registry@W4entity@entt@@@entt@@@std@@@std@@YAPEAUpool_data@?$basic_registry@W4entity@entt@@@entt@@QEAU123@0PEAU123@AEAV?$allocator@Upool_data@?$basic_registry@W4entity@entt@@@entt@@@0@@Z@4HA
	DD	imagerel ?dtor$0@?0???$_Uninitialized_move@PEAUpool_data@?$basic_registry@W4entity@entt@@@entt@@V?$allocator@Upool_data@?$basic_registry@W4entity@entt@@@entt@@@std@@@std@@YAPEAUpool_data@?$basic_registry@W4entity@entt@@@entt@@QEAU123@0PEAU123@AEAV?$allocator@Upool_data@?$basic_registry@W4entity@entt@@@entt@@@0@@Z@4HA+36
	DD	imagerel $unwind$?dtor$0@?0???$_Uninitialized_move@PEAUpool_data@?$basic_registry@W4entity@entt@@@entt@@V?$allocator@Upool_data@?$basic_registry@W4entity@entt@@@entt@@@std@@@std@@YAPEAUpool_data@?$basic_registry@W4entity@entt@@@entt@@QEAU123@0PEAU123@AEAV?$allocator@Upool_data@?$basic_registry@W4entity@entt@@@entt@@@0@@Z@4HA
pdata	ENDS
;	COMDAT pdata
pdata	SEGMENT
$pdata$??$construct@Upool_data@?$basic_registry@W4entity@entt@@@entt@@$$V@?$_Default_allocator_traits@V?$allocator@Upool_data@?$basic_registry@W4entity@entt@@@entt@@@std@@@std@@SAXAEAV?$allocator@Upool_data@?$basic_registry@W4entity@entt@@@entt@@@1@QEAUpool_data@?$basic_registry@W4entity@entt@@@entt@@@Z DD imagerel $LN3
	DD	imagerel $LN3+121
	DD	imagerel $unwind$??$construct@Upool_data@?$basic_registry@W4entity@entt@@@entt@@$$V@?$_Default_allocator_traits@V?$allocator@Upool_data@?$basic_registry@W4entity@entt@@@entt@@@std@@@std@@SAXAEAV?$allocator@Upool_data@?$basic_registry@W4entity@entt@@@entt@@@1@QEAUpool_data@?$basic_registry@W4entity@entt@@@entt@@@Z
pdata	ENDS
;	COMDAT pdata
pdata	SEGMENT
$pdata$??$_Get_unwrapped@AEBQEAUpool_data@?$basic_registry@W4entity@entt@@@entt@@@std@@YA@AEBQEAUpool_data@?$basic_registry@W4entity@entt@@@entt@@@Z DD imagerel $LN3
	DD	imagerel $LN3+74
	DD	imagerel $unwind$??$_Get_unwrapped@AEBQEAUpool_data@?$basic_registry@W4entity@entt@@@entt@@@std@@YA@AEBQEAUpool_data@?$basic_registry@W4entity@entt@@@entt@@@Z
pdata	ENDS
;	COMDAT pdata
pdata	SEGMENT
$pdata$??$move@AEAUpool_data@?$basic_registry@W4entity@entt@@@entt@@@std@@YA$$QEAUpool_data@?$basic_registry@W4entity@entt@@@entt@@AEAU123@@Z DD imagerel $LN3
	DD	imagerel $LN3+71
	DD	imagerel $unwind$??$move@AEAUpool_data@?$basic_registry@W4entity@entt@@@entt@@@std@@YA$$QEAUpool_data@?$basic_registry@W4entity@entt@@@entt@@AEAU123@@Z
pdata	ENDS
;	COMDAT pdata
pdata	SEGMENT
$pdata$??$_Emplace_back@Upool_data@?$basic_registry@W4entity@entt@@@entt@@@?$_Uninitialized_backout_al@V?$allocator@Upool_data@?$basic_registry@W4entity@entt@@@entt@@@std@@@std@@QEAAX$$QEAUpool_data@?$basic_registry@W4entity@entt@@@entt@@@Z DD imagerel $LN3
	DD	imagerel $LN3+181
	DD	imagerel $unwind$??$_Emplace_back@Upool_data@?$basic_registry@W4entity@entt@@@entt@@@?$_Uninitialized_backout_al@V?$allocator@Upool_data@?$basic_registry@W4entity@entt@@@entt@@@std@@@std@@QEAAX$$QEAUpool_data@?$basic_registry@W4entity@entt@@@entt@@@Z
pdata	ENDS
;	COMDAT pdata
pdata	SEGMENT
$pdata$??$forward@Upool_data@?$basic_registry@W4entity@entt@@@entt@@@std@@YA$$QEAUpool_data@?$basic_registry@W4entity@entt@@@entt@@AEAU123@@Z DD imagerel $LN3
	DD	imagerel $LN3+71
	DD	imagerel $unwind$??$forward@Upool_data@?$basic_registry@W4entity@entt@@@entt@@@std@@YA$$QEAUpool_data@?$basic_registry@W4entity@entt@@@entt@@AEAU123@@Z
pdata	ENDS
;	COMDAT pdata
pdata	SEGMENT
$pdata$??$construct@Upool_data@?$basic_registry@W4entity@entt@@@entt@@U123@@?$_Default_allocator_traits@V?$allocator@Upool_data@?$basic_registry@W4entity@entt@@@entt@@@std@@@std@@SAXAEAV?$allocator@Upool_data@?$basic_registry@W4entity@entt@@@entt@@@1@QEAUpool_data@?$basic_registry@W4entity@entt@@@entt@@$$QEAU345@@Z DD imagerel $LN3
	DD	imagerel $LN3+136
	DD	imagerel $unwind$??$construct@Upool_data@?$basic_registry@W4entity@entt@@@entt@@U123@@?$_Default_allocator_traits@V?$allocator@Upool_data@?$basic_registry@W4entity@entt@@@entt@@@std@@@std@@SAXAEAV?$allocator@Upool_data@?$basic_registry@W4entity@entt@@@entt@@@1@QEAUpool_data@?$basic_registry@W4entity@entt@@@entt@@$$QEAU345@@Z
pdata	ENDS
;	COMDAT pdata
pdata	SEGMENT
$pdata$??$?0U?$default_delete@V?$sparse_set@W4entity@entt@@@entt@@@std@@$0A@@?$unique_ptr@V?$sparse_set@W4entity@entt@@@entt@@U?$default_delete@V?$sparse_set@W4entity@entt@@@entt@@@std@@@std@@QEAA@XZ DD imagerel $LN3
	DD	imagerel $LN3+104
	DD	imagerel $unwind$??$?0U?$default_delete@V?$sparse_set@W4entity@entt@@@entt@@@std@@$0A@@?$unique_ptr@V?$sparse_set@W4entity@entt@@@entt@@U?$default_delete@V?$sparse_set@W4entity@entt@@@entt@@@std@@@std@@QEAA@XZ
pdata	ENDS
;	COMDAT pdata
pdata	SEGMENT
$pdata$??$?0$$V@?$_Compressed_pair@U?$default_delete@V?$sparse_set@W4entity@entt@@@entt@@@std@@PEAV?$sparse_set@W4entity@entt@@@entt@@$00@std@@QEAA@U_Zero_then_variadic_args_t@1@@Z DD imagerel $LN3
	DD	imagerel $LN3+89
	DD	imagerel $unwind$??$?0$$V@?$_Compressed_pair@U?$default_delete@V?$sparse_set@W4entity@entt@@@entt@@@std@@PEAV?$sparse_set@W4entity@entt@@@entt@@$00@std@@QEAA@U_Zero_then_variadic_args_t@1@@Z
pdata	ENDS
;	COMDAT pdata
pdata	SEGMENT
$pdata$??$forward@U?$default_delete@V?$sparse_set@W4entity@entt@@@entt@@@std@@@std@@YA$$QEAU?$default_delete@V?$sparse_set@W4entity@entt@@@entt@@@0@AEAU10@@Z DD imagerel $LN3
	DD	imagerel $LN3+71
	DD	imagerel $unwind$??$forward@U?$default_delete@V?$sparse_set@W4entity@entt@@@entt@@@std@@@std@@YA$$QEAU?$default_delete@V?$sparse_set@W4entity@entt@@@entt@@@0@AEAU10@@Z
pdata	ENDS
;	COMDAT pdata
pdata	SEGMENT
$pdata$??$?0U?$default_delete@V?$sparse_set@W4entity@entt@@@entt@@@std@@PEAV?$sparse_set@W4entity@entt@@@entt@@@?$_Compressed_pair@U?$default_delete@V?$sparse_set@W4entity@entt@@@entt@@@std@@PEAV?$sparse_set@W4entity@entt@@@entt@@$00@std@@QEAA@U_One_then_variadic_args_t@1@$$QEAU?$default_delete@V?$sparse_set@W4entity@entt@@@entt@@@1@$$QEAPEAV?$sparse_set@W4entity@entt@@@entt@@@Z DD imagerel $LN3
	DD	imagerel $LN3+122
	DD	imagerel $unwind$??$?0U?$default_delete@V?$sparse_set@W4entity@entt@@@entt@@@std@@PEAV?$sparse_set@W4entity@entt@@@entt@@@?$_Compressed_pair@U?$default_delete@V?$sparse_set@W4entity@entt@@@entt@@@std@@PEAV?$sparse_set@W4entity@entt@@@entt@@$00@std@@QEAA@U_One_then_variadic_args_t@1@$$QEAU?$default_delete@V?$sparse_set@W4entity@entt@@@entt@@@1@$$QEAPEAV?$sparse_set@W4entity@entt@@@entt@@@Z
pdata	ENDS
;	COMDAT pdata
pdata	SEGMENT
$pdata$??$exchange@PEAV?$sparse_set@W4entity@entt@@@entt@@$$T@std@@YAPEAV?$sparse_set@W4entity@entt@@@entt@@AEAPEAV12@$$QEA$$T@Z DD imagerel $LN3
	DD	imagerel $LN3+107
	DD	imagerel $unwind$??$exchange@PEAV?$sparse_set@W4entity@entt@@@entt@@$$T@std@@YAPEAV?$sparse_set@W4entity@entt@@@entt@@AEAPEAV12@$$QEA$$T@Z
pdata	ENDS
;	COMDAT pdata
pdata	SEGMENT
$pdata$??$forward@PEAV?$sparse_set@W4entity@entt@@@entt@@@std@@YA$$QEAPEAV?$sparse_set@W4entity@entt@@@entt@@AEAPEAV12@@Z DD imagerel $LN3
	DD	imagerel $LN3+71
	DD	imagerel $unwind$??$forward@PEAV?$sparse_set@W4entity@entt@@@entt@@@std@@YA$$QEAPEAV?$sparse_set@W4entity@entt@@@entt@@AEAPEAV12@@Z
pdata	ENDS
CRT$XCU	SEGMENT
?level_string_views$initializer$@level@spdlog@@3P6AXXZEA DQ FLAT:??__Elevel_string_views@level@spdlog@@YAXXZ ; spdlog::level::level_string_views$initializer$
CRT$XCU	ENDS
;	COMDAT __real@40a00000
CONST	SEGMENT
__real@40a00000 DD 040a00000r			; 5
CONST	ENDS
;	COMDAT __real@40000000
CONST	SEGMENT
__real@40000000 DD 040000000r			; 2
CONST	ENDS
;	COMDAT rtc$TMZ
rtc$TMZ	SEGMENT
_RTC_Shutdown.rtc$TMZ DQ FLAT:_RTC_Shutdown
rtc$TMZ	ENDS
;	COMDAT rtc$IMZ
rtc$IMZ	SEGMENT
_RTC_InitBase.rtc$IMZ DQ FLAT:_RTC_InitBase
rtc$IMZ	ENDS
;	COMDAT ??_R4?$sparse_set@W4entity@entt@@@entt@@6B@
rdata$r	SEGMENT
??_R4?$sparse_set@W4entity@entt@@@entt@@6B@ DD 01H	; entt::sparse_set<enum entt::entity>::`RTTI Complete Object Locator'
	DD	00H
	DD	00H
	DD	imagerel ??_R0?AV?$sparse_set@W4entity@entt@@@entt@@@8
	DD	imagerel ??_R3?$sparse_set@W4entity@entt@@@entt@@8
	DD	imagerel ??_R4?$sparse_set@W4entity@entt@@@entt@@6B@
rdata$r	ENDS
;	COMDAT ??_R4?$storage@W4entity@entt@@UTransformComponent@Immortal@@X@entt@@6B@
rdata$r	SEGMENT
??_R4?$storage@W4entity@entt@@UTransformComponent@Immortal@@X@entt@@6B@ DD 01H ; entt::storage<enum entt::entity,Immortal::TransformComponent,void>::`RTTI Complete Object Locator'
	DD	00H
	DD	00H
	DD	imagerel ??_R0?AV?$storage@W4entity@entt@@UTransformComponent@Immortal@@X@entt@@@8
	DD	imagerel ??_R3?$storage@W4entity@entt@@UTransformComponent@Immortal@@X@entt@@8
	DD	imagerel ??_R4?$storage@W4entity@entt@@UTransformComponent@Immortal@@X@entt@@6B@
rdata$r	ENDS
;	COMDAT ??_R2?$sparse_set@W4entity@entt@@@entt@@8
rdata$r	SEGMENT
??_R2?$sparse_set@W4entity@entt@@@entt@@8 DD imagerel ??_R1A@?0A@EA@?$sparse_set@W4entity@entt@@@entt@@8 ; entt::sparse_set<enum entt::entity>::`RTTI Base Class Array'
	ORG $+3
rdata$r	ENDS
;	COMDAT ??_R3?$sparse_set@W4entity@entt@@@entt@@8
rdata$r	SEGMENT
??_R3?$sparse_set@W4entity@entt@@@entt@@8 DD 00H	; entt::sparse_set<enum entt::entity>::`RTTI Class Hierarchy Descriptor'
	DD	00H
	DD	01H
	DD	imagerel ??_R2?$sparse_set@W4entity@entt@@@entt@@8
rdata$r	ENDS
;	COMDAT ??_R0?AV?$sparse_set@W4entity@entt@@@entt@@@8
data$rs	SEGMENT
??_R0?AV?$sparse_set@W4entity@entt@@@entt@@@8 DQ FLAT:??_7type_info@@6B@ ; entt::sparse_set<enum entt::entity> `RTTI Type Descriptor'
	DQ	0000000000000000H
	DB	'.?AV?$sparse_set@W4entity@entt@@@entt@@', 00H
data$rs	ENDS
;	COMDAT ??_R1A@?0A@EA@?$sparse_set@W4entity@entt@@@entt@@8
rdata$r	SEGMENT
??_R1A@?0A@EA@?$sparse_set@W4entity@entt@@@entt@@8 DD imagerel ??_R0?AV?$sparse_set@W4entity@entt@@@entt@@@8 ; entt::sparse_set<enum entt::entity>::`RTTI Base Class Descriptor at (0,-1,0,64)'
	DD	00H
	DD	00H
	DD	0ffffffffH
	DD	00H
	DD	040H
	DD	imagerel ??_R3?$sparse_set@W4entity@entt@@@entt@@8
rdata$r	ENDS
;	COMDAT ??_R2?$storage@W4entity@entt@@UTransformComponent@Immortal@@X@entt@@8
rdata$r	SEGMENT
??_R2?$storage@W4entity@entt@@UTransformComponent@Immortal@@X@entt@@8 DD imagerel ??_R1A@?0A@EA@?$storage@W4entity@entt@@UTransformComponent@Immortal@@X@entt@@8 ; entt::storage<enum entt::entity,Immortal::TransformComponent,void>::`RTTI Base Class Array'
	DD	imagerel ??_R1A@?0A@EA@?$sparse_set@W4entity@entt@@@entt@@8
	ORG $+3
rdata$r	ENDS
;	COMDAT ??_R3?$storage@W4entity@entt@@UTransformComponent@Immortal@@X@entt@@8
rdata$r	SEGMENT
??_R3?$storage@W4entity@entt@@UTransformComponent@Immortal@@X@entt@@8 DD 00H ; entt::storage<enum entt::entity,Immortal::TransformComponent,void>::`RTTI Class Hierarchy Descriptor'
	DD	00H
	DD	02H
	DD	imagerel ??_R2?$storage@W4entity@entt@@UTransformComponent@Immortal@@X@entt@@8
rdata$r	ENDS
;	COMDAT ??_R0?AV?$storage@W4entity@entt@@UTransformComponent@Immortal@@X@entt@@@8
data$rs	SEGMENT
??_R0?AV?$storage@W4entity@entt@@UTransformComponent@Immortal@@X@entt@@@8 DQ FLAT:??_7type_info@@6B@ ; entt::storage<enum entt::entity,Immortal::TransformComponent,void> `RTTI Type Descriptor'
	DQ	0000000000000000H
	DB	'.?AV?$storage@W4entity@entt@@UTransformComponent@Immorta'
	DB	'l@@X@entt@@', 00H
data$rs	ENDS
;	COMDAT ??_R1A@?0A@EA@?$storage@W4entity@entt@@UTransformComponent@Immortal@@X@entt@@8
rdata$r	SEGMENT
??_R1A@?0A@EA@?$storage@W4entity@entt@@UTransformComponent@Immortal@@X@entt@@8 DD imagerel ??_R0?AV?$storage@W4entity@entt@@UTransformComponent@Immortal@@X@entt@@@8 ; entt::storage<enum entt::entity,Immortal::TransformComponent,void>::`RTTI Base Class Descriptor at (0,-1,0,64)'
	DD	01H
	DD	00H
	DD	0ffffffffH
	DD	00H
	DD	040H
	DD	imagerel ??_R3?$storage@W4entity@entt@@UTransformComponent@Immortal@@X@entt@@8
rdata$r	ENDS
;	COMDAT ??_R1A@?0A@EA@?$pool_handler@UTransformComponent@Immortal@@@?$basic_registry@W4entity@entt@@@entt@@8
rdata$r	SEGMENT
??_R1A@?0A@EA@?$pool_handler@UTransformComponent@Immortal@@@?$basic_registry@W4entity@entt@@@entt@@8 DD imagerel ??_R0?AU?$pool_handler@UTransformComponent@Immortal@@@?$basic_registry@W4entity@entt@@@entt@@@8 ; entt::basic_registry<enum entt::entity>::pool_handler<Immortal::TransformComponent>::`RTTI Base Class Descriptor at (0,-1,0,64)'
	DD	02H
	DD	00H
	DD	0ffffffffH
	DD	00H
	DD	040H
	DD	imagerel ??_R3?$pool_handler@UTransformComponent@Immortal@@@?$basic_registry@W4entity@entt@@@entt@@8
rdata$r	ENDS
;	COMDAT ??_R2?$pool_handler@UTransformComponent@Immortal@@@?$basic_registry@W4entity@entt@@@entt@@8
rdata$r	SEGMENT
??_R2?$pool_handler@UTransformComponent@Immortal@@@?$basic_registry@W4entity@entt@@@entt@@8 DD imagerel ??_R1A@?0A@EA@?$pool_handler@UTransformComponent@Immortal@@@?$basic_registry@W4entity@entt@@@entt@@8 ; entt::basic_registry<enum entt::entity>::pool_handler<Immortal::TransformComponent>::`RTTI Base Class Array'
	DD	imagerel ??_R1A@?0A@EA@?$storage@W4entity@entt@@UTransformComponent@Immortal@@X@entt@@8
	DD	imagerel ??_R1A@?0A@EA@?$sparse_set@W4entity@entt@@@entt@@8
	ORG $+3
rdata$r	ENDS
;	COMDAT ??_R3?$pool_handler@UTransformComponent@Immortal@@@?$basic_registry@W4entity@entt@@@entt@@8
rdata$r	SEGMENT
??_R3?$pool_handler@UTransformComponent@Immortal@@@?$basic_registry@W4entity@entt@@@entt@@8 DD 00H ; entt::basic_registry<enum entt::entity>::pool_handler<Immortal::TransformComponent>::`RTTI Class Hierarchy Descriptor'
	DD	00H
	DD	03H
	DD	imagerel ??_R2?$pool_handler@UTransformComponent@Immortal@@@?$basic_registry@W4entity@entt@@@entt@@8
rdata$r	ENDS
;	COMDAT ??_R0?AU?$pool_handler@UTransformComponent@Immortal@@@?$basic_registry@W4entity@entt@@@entt@@@8
data$rs	SEGMENT
??_R0?AU?$pool_handler@UTransformComponent@Immortal@@@?$basic_registry@W4entity@entt@@@entt@@@8 DQ FLAT:??_7type_info@@6B@ ; entt::basic_registry<enum entt::entity>::pool_handler<Immortal::TransformComponent> `RTTI Type Descriptor'
	DQ	0000000000000000H
	DB	'.?AU?$pool_handler@UTransformComponent@Immortal@@@?$basi'
	DB	'c_registry@W4entity@entt@@@entt@@', 00H
data$rs	ENDS
;	COMDAT ??_R4?$pool_handler@UTransformComponent@Immortal@@@?$basic_registry@W4entity@entt@@@entt@@6B@
rdata$r	SEGMENT
??_R4?$pool_handler@UTransformComponent@Immortal@@@?$basic_registry@W4entity@entt@@@entt@@6B@ DD 01H ; entt::basic_registry<enum entt::entity>::pool_handler<Immortal::TransformComponent>::`RTTI Complete Object Locator'
	DD	00H
	DD	00H
	DD	imagerel ??_R0?AU?$pool_handler@UTransformComponent@Immortal@@@?$basic_registry@W4entity@entt@@@entt@@@8
	DD	imagerel ??_R3?$pool_handler@UTransformComponent@Immortal@@@?$basic_registry@W4entity@entt@@@entt@@8
	DD	imagerel ??_R4?$pool_handler@UTransformComponent@Immortal@@@?$basic_registry@W4entity@entt@@@entt@@6B@
rdata$r	ENDS
;	COMDAT ??_R1A@?0A@EA@CubeController@Immortal@@8
rdata$r	SEGMENT
??_R1A@?0A@EA@CubeController@Immortal@@8 DD imagerel ??_R0?AVCubeController@Immortal@@@8 ; Immortal::CubeController::`RTTI Base Class Descriptor at (0,-1,0,64)'
	DD	01H
	DD	00H
	DD	0ffffffffH
	DD	00H
	DD	040H
	DD	imagerel ??_R3CubeController@Immortal@@8
rdata$r	ENDS
;	COMDAT ??_R2CubeController@Immortal@@8
rdata$r	SEGMENT
??_R2CubeController@Immortal@@8 DD imagerel ??_R1A@?0A@EA@CubeController@Immortal@@8 ; Immortal::CubeController::`RTTI Base Class Array'
	DD	imagerel ??_R1A@?0A@EA@ScriptableObject@Immortal@@8
	ORG $+3
rdata$r	ENDS
;	COMDAT ??_R3CubeController@Immortal@@8
rdata$r	SEGMENT
??_R3CubeController@Immortal@@8 DD 00H			; Immortal::CubeController::`RTTI Class Hierarchy Descriptor'
	DD	00H
	DD	02H
	DD	imagerel ??_R2CubeController@Immortal@@8
rdata$r	ENDS
;	COMDAT ??_R0?AVCubeController@Immortal@@@8
data$rs	SEGMENT
??_R0?AVCubeController@Immortal@@@8 DQ FLAT:??_7type_info@@6B@ ; Immortal::CubeController `RTTI Type Descriptor'
	DQ	0000000000000000H
	DB	'.?AVCubeController@Immortal@@', 00H
data$rs	ENDS
;	COMDAT ??_R4CubeController@Immortal@@6B@
rdata$r	SEGMENT
??_R4CubeController@Immortal@@6B@ DD 01H		; Immortal::CubeController::`RTTI Complete Object Locator'
	DD	00H
	DD	00H
	DD	imagerel ??_R0?AVCubeController@Immortal@@@8
	DD	imagerel ??_R3CubeController@Immortal@@8
	DD	imagerel ??_R4CubeController@Immortal@@6B@
rdata$r	ENDS
;	COMDAT ??_R1A@?0A@EA@ScriptableObject@Immortal@@8
rdata$r	SEGMENT
??_R1A@?0A@EA@ScriptableObject@Immortal@@8 DD imagerel ??_R0?AVScriptableObject@Immortal@@@8 ; Immortal::ScriptableObject::`RTTI Base Class Descriptor at (0,-1,0,64)'
	DD	00H
	DD	00H
	DD	0ffffffffH
	DD	00H
	DD	040H
	DD	imagerel ??_R3ScriptableObject@Immortal@@8
rdata$r	ENDS
;	COMDAT ??_R2ScriptableObject@Immortal@@8
rdata$r	SEGMENT
??_R2ScriptableObject@Immortal@@8 DD imagerel ??_R1A@?0A@EA@ScriptableObject@Immortal@@8 ; Immortal::ScriptableObject::`RTTI Base Class Array'
	ORG $+3
rdata$r	ENDS
;	COMDAT ??_R3ScriptableObject@Immortal@@8
rdata$r	SEGMENT
??_R3ScriptableObject@Immortal@@8 DD 00H		; Immortal::ScriptableObject::`RTTI Class Hierarchy Descriptor'
	DD	00H
	DD	01H
	DD	imagerel ??_R2ScriptableObject@Immortal@@8
rdata$r	ENDS
;	COMDAT ??_R0?AVScriptableObject@Immortal@@@8
data$rs	SEGMENT
??_R0?AVScriptableObject@Immortal@@@8 DQ FLAT:??_7type_info@@6B@ ; Immortal::ScriptableObject `RTTI Type Descriptor'
	DQ	0000000000000000H
	DB	'.?AVScriptableObject@Immortal@@', 00H
data$rs	ENDS
;	COMDAT ??_R4ScriptableObject@Immortal@@6B@
rdata$r	SEGMENT
??_R4ScriptableObject@Immortal@@6B@ DD 01H		; Immortal::ScriptableObject::`RTTI Complete Object Locator'
	DD	00H
	DD	00H
	DD	imagerel ??_R0?AVScriptableObject@Immortal@@@8
	DD	imagerel ??_R3ScriptableObject@Immortal@@8
	DD	imagerel ??_R4ScriptableObject@Immortal@@6B@
rdata$r	ENDS
;	COMDAT ??_R1A@?0A@EA@bad_array_new_length@std@@8
rdata$r	SEGMENT
??_R1A@?0A@EA@bad_array_new_length@std@@8 DD imagerel ??_R0?AVbad_array_new_length@std@@@8 ; std::bad_array_new_length::`RTTI Base Class Descriptor at (0,-1,0,64)'
	DD	02H
	DD	00H
	DD	0ffffffffH
	DD	00H
	DD	040H
	DD	imagerel ??_R3bad_array_new_length@std@@8
rdata$r	ENDS
;	COMDAT ??_R2bad_array_new_length@std@@8
rdata$r	SEGMENT
??_R2bad_array_new_length@std@@8 DD imagerel ??_R1A@?0A@EA@bad_array_new_length@std@@8 ; std::bad_array_new_length::`RTTI Base Class Array'
	DD	imagerel ??_R1A@?0A@EA@bad_alloc@std@@8
	DD	imagerel ??_R1A@?0A@EA@exception@std@@8
	ORG $+3
rdata$r	ENDS
;	COMDAT ??_R3bad_array_new_length@std@@8
rdata$r	SEGMENT
??_R3bad_array_new_length@std@@8 DD 00H			; std::bad_array_new_length::`RTTI Class Hierarchy Descriptor'
	DD	00H
	DD	03H
	DD	imagerel ??_R2bad_array_new_length@std@@8
rdata$r	ENDS
;	COMDAT ??_R4bad_array_new_length@std@@6B@
rdata$r	SEGMENT
??_R4bad_array_new_length@std@@6B@ DD 01H		; std::bad_array_new_length::`RTTI Complete Object Locator'
	DD	00H
	DD	00H
	DD	imagerel ??_R0?AVbad_array_new_length@std@@@8
	DD	imagerel ??_R3bad_array_new_length@std@@8
	DD	imagerel ??_R4bad_array_new_length@std@@6B@
rdata$r	ENDS
;	COMDAT ??_R1A@?0A@EA@bad_alloc@std@@8
rdata$r	SEGMENT
??_R1A@?0A@EA@bad_alloc@std@@8 DD imagerel ??_R0?AVbad_alloc@std@@@8 ; std::bad_alloc::`RTTI Base Class Descriptor at (0,-1,0,64)'
	DD	01H
	DD	00H
	DD	0ffffffffH
	DD	00H
	DD	040H
	DD	imagerel ??_R3bad_alloc@std@@8
rdata$r	ENDS
;	COMDAT ??_R2bad_alloc@std@@8
rdata$r	SEGMENT
??_R2bad_alloc@std@@8 DD imagerel ??_R1A@?0A@EA@bad_alloc@std@@8 ; std::bad_alloc::`RTTI Base Class Array'
	DD	imagerel ??_R1A@?0A@EA@exception@std@@8
	ORG $+3
rdata$r	ENDS
;	COMDAT ??_R3bad_alloc@std@@8
rdata$r	SEGMENT
??_R3bad_alloc@std@@8 DD 00H				; std::bad_alloc::`RTTI Class Hierarchy Descriptor'
	DD	00H
	DD	02H
	DD	imagerel ??_R2bad_alloc@std@@8
rdata$r	ENDS
;	COMDAT ??_R4bad_alloc@std@@6B@
rdata$r	SEGMENT
??_R4bad_alloc@std@@6B@ DD 01H				; std::bad_alloc::`RTTI Complete Object Locator'
	DD	00H
	DD	00H
	DD	imagerel ??_R0?AVbad_alloc@std@@@8
	DD	imagerel ??_R3bad_alloc@std@@8
	DD	imagerel ??_R4bad_alloc@std@@6B@
rdata$r	ENDS
;	COMDAT ??_R1A@?0A@EA@exception@std@@8
rdata$r	SEGMENT
??_R1A@?0A@EA@exception@std@@8 DD imagerel ??_R0?AVexception@std@@@8 ; std::exception::`RTTI Base Class Descriptor at (0,-1,0,64)'
	DD	00H
	DD	00H
	DD	0ffffffffH
	DD	00H
	DD	040H
	DD	imagerel ??_R3exception@std@@8
rdata$r	ENDS
;	COMDAT ??_R2exception@std@@8
rdata$r	SEGMENT
??_R2exception@std@@8 DD imagerel ??_R1A@?0A@EA@exception@std@@8 ; std::exception::`RTTI Base Class Array'
	ORG $+3
rdata$r	ENDS
;	COMDAT ??_R3exception@std@@8
rdata$r	SEGMENT
??_R3exception@std@@8 DD 00H				; std::exception::`RTTI Class Hierarchy Descriptor'
	DD	00H
	DD	01H
	DD	imagerel ??_R2exception@std@@8
rdata$r	ENDS
;	COMDAT ??_R4exception@std@@6B@
rdata$r	SEGMENT
??_R4exception@std@@6B@ DD 01H				; std::exception::`RTTI Complete Object Locator'
	DD	00H
	DD	00H
	DD	imagerel ??_R0?AVexception@std@@@8
	DD	imagerel ??_R3exception@std@@8
	DD	imagerel ??_R4exception@std@@6B@
rdata$r	ENDS
;	COMDAT ??_C@_1KE@PBLILFBK@?$AAs?$AAt?$AAd?$AA?3?$AA?3?$AAv?$AAe?$AAc?$AAt?$AAo?$AAr?$AA?$DM?$AAe?$AAn?$AAu@
CONST	SEGMENT
??_C@_1KE@PBLILFBK@?$AAs?$AAt?$AAd?$AA?3?$AA?3?$AAv?$AAe?$AAc?$AAt?$AAo?$AAr?$AA?$DM?$AAe?$AAn?$AAu@ DB 's'
	DB	00H, 't', 00H, 'd', 00H, ':', 00H, ':', 00H, 'v', 00H, 'e', 00H
	DB	'c', 00H, 't', 00H, 'o', 00H, 'r', 00H, '<', 00H, 'e', 00H, 'n'
	DB	00H, 'u', 00H, 'm', 00H, ' ', 00H, 'e', 00H, 'n', 00H, 't', 00H
	DB	't', 00H, ':', 00H, ':', 00H, 'e', 00H, 'n', 00H, 't', 00H, 'i'
	DB	00H, 't', 00H, 'y', 00H, ',', 00H, 'c', 00H, 'l', 00H, 'a', 00H
	DB	's', 00H, 's', 00H, ' ', 00H, 's', 00H, 't', 00H, 'd', 00H, ':'
	DB	00H, ':', 00H, 'a', 00H, 'l', 00H, 'l', 00H, 'o', 00H, 'c', 00H
	DB	'a', 00H, 't', 00H, 'o', 00H, 'r', 00H, '<', 00H, 'e', 00H, 'n'
	DB	00H, 'u', 00H, 'm', 00H, ' ', 00H, 'e', 00H, 'n', 00H, 't', 00H
	DB	't', 00H, ':', 00H, ':', 00H, 'e', 00H, 'n', 00H, 't', 00H, 'i'
	DB	00H, 't', 00H, 'y', 00H, '>', 00H, ' ', 00H, '>', 00H, ':', 00H
	DB	':', 00H, 'p', 00H, 'o', 00H, 'p', 00H, '_', 00H, 'b', 00H, 'a'
	DB	00H, 'c', 00H, 'k', 00H, 00H, 00H		; `string'
CONST	ENDS
;	COMDAT ??_C@_1JM@NGPFAAAJ@?$AAs?$AAt?$AAd?$AA?3?$AA?3?$AAv?$AAe?$AAc?$AAt?$AAo?$AAr?$AA?$DM?$AAe?$AAn?$AAu@
CONST	SEGMENT
??_C@_1JM@NGPFAAAJ@?$AAs?$AAt?$AAd?$AA?3?$AA?3?$AAv?$AAe?$AAc?$AAt?$AAo?$AAr?$AA?$DM?$AAe?$AAn?$AAu@ DB 's'
	DB	00H, 't', 00H, 'd', 00H, ':', 00H, ':', 00H, 'v', 00H, 'e', 00H
	DB	'c', 00H, 't', 00H, 'o', 00H, 'r', 00H, '<', 00H, 'e', 00H, 'n'
	DB	00H, 'u', 00H, 'm', 00H, ' ', 00H, 'e', 00H, 'n', 00H, 't', 00H
	DB	't', 00H, ':', 00H, ':', 00H, 'e', 00H, 'n', 00H, 't', 00H, 'i'
	DB	00H, 't', 00H, 'y', 00H, ',', 00H, 'c', 00H, 'l', 00H, 'a', 00H
	DB	's', 00H, 's', 00H, ' ', 00H, 's', 00H, 't', 00H, 'd', 00H, ':'
	DB	00H, ':', 00H, 'a', 00H, 'l', 00H, 'l', 00H, 'o', 00H, 'c', 00H
	DB	'a', 00H, 't', 00H, 'o', 00H, 'r', 00H, '<', 00H, 'e', 00H, 'n'
	DB	00H, 'u', 00H, 'm', 00H, ' ', 00H, 'e', 00H, 'n', 00H, 't', 00H
	DB	't', 00H, ':', 00H, ':', 00H, 'e', 00H, 'n', 00H, 't', 00H, 'i'
	DB	00H, 't', 00H, 'y', 00H, '>', 00H, ' ', 00H, '>', 00H, ':', 00H
	DB	':', 00H, 'b', 00H, 'a', 00H, 'c', 00H, 'k', 00H, 00H, 00H ; `string'
CONST	ENDS
;	COMDAT ??_C@_1OM@DHIEJACJ@?$AAs?$AAt?$AAd?$AA?3?$AA?3?$AAv?$AAe?$AAc?$AAt?$AAo?$AAr?$AA?$DM?$AAs?$AAt?$AAr@
CONST	SEGMENT
??_C@_1OM@DHIEJACJ@?$AAs?$AAt?$AAd?$AA?3?$AA?3?$AAv?$AAe?$AAc?$AAt?$AAo?$AAr?$AA?$DM?$AAs?$AAt?$AAr@ DB 's'
	DB	00H, 't', 00H, 'd', 00H, ':', 00H, ':', 00H, 'v', 00H, 'e', 00H
	DB	'c', 00H, 't', 00H, 'o', 00H, 'r', 00H, '<', 00H, 's', 00H, 't'
	DB	00H, 'r', 00H, 'u', 00H, 'c', 00H, 't', 00H, ' ', 00H, 'I', 00H
	DB	'm', 00H, 'm', 00H, 'o', 00H, 'r', 00H, 't', 00H, 'a', 00H, 'l'
	DB	00H, ':', 00H, ':', 00H, 'T', 00H, 'r', 00H, 'a', 00H, 'n', 00H
	DB	's', 00H, 'f', 00H, 'o', 00H, 'r', 00H, 'm', 00H, 'C', 00H, 'o'
	DB	00H, 'm', 00H, 'p', 00H, 'o', 00H, 'n', 00H, 'e', 00H, 'n', 00H
	DB	't', 00H, ',', 00H, 'c', 00H, 'l', 00H, 'a', 00H, 's', 00H, 's'
	DB	00H, ' ', 00H, 's', 00H, 't', 00H, 'd', 00H, ':', 00H, ':', 00H
	DB	'a', 00H, 'l', 00H, 'l', 00H, 'o', 00H, 'c', 00H, 'a', 00H, 't'
	DB	00H, 'o', 00H, 'r', 00H, '<', 00H, 's', 00H, 't', 00H, 'r', 00H
	DB	'u', 00H, 'c', 00H, 't', 00H, ' ', 00H, 'I', 00H, 'm', 00H, 'm'
	DB	00H, 'o', 00H, 'r', 00H, 't', 00H, 'a', 00H, 'l', 00H, ':', 00H
	DB	':', 00H, 'T', 00H, 'r', 00H, 'a', 00H, 'n', 00H, 's', 00H, 'f'
	DB	00H, 'o', 00H, 'r', 00H, 'm', 00H, 'C', 00H, 'o', 00H, 'm', 00H
	DB	'p', 00H, 'o', 00H, 'n', 00H, 'e', 00H, 'n', 00H, 't', 00H, '>'
	DB	00H, ' ', 00H, '>', 00H, ':', 00H, ':', 00H, 'p', 00H, 'o', 00H
	DB	'p', 00H, '_', 00H, 'b', 00H, 'a', 00H, 'c', 00H, 'k', 00H, 00H
	DB	00H						; `string'
CONST	ENDS
;	COMDAT ??_C@_1OE@OBPPCMBJ@?$AAs?$AAt?$AAd?$AA?3?$AA?3?$AAv?$AAe?$AAc?$AAt?$AAo?$AAr?$AA?$DM?$AAs?$AAt?$AAr@
CONST	SEGMENT
??_C@_1OE@OBPPCMBJ@?$AAs?$AAt?$AAd?$AA?3?$AA?3?$AAv?$AAe?$AAc?$AAt?$AAo?$AAr?$AA?$DM?$AAs?$AAt?$AAr@ DB 's'
	DB	00H, 't', 00H, 'd', 00H, ':', 00H, ':', 00H, 'v', 00H, 'e', 00H
	DB	'c', 00H, 't', 00H, 'o', 00H, 'r', 00H, '<', 00H, 's', 00H, 't'
	DB	00H, 'r', 00H, 'u', 00H, 'c', 00H, 't', 00H, ' ', 00H, 'I', 00H
	DB	'm', 00H, 'm', 00H, 'o', 00H, 'r', 00H, 't', 00H, 'a', 00H, 'l'
	DB	00H, ':', 00H, ':', 00H, 'T', 00H, 'r', 00H, 'a', 00H, 'n', 00H
	DB	's', 00H, 'f', 00H, 'o', 00H, 'r', 00H, 'm', 00H, 'C', 00H, 'o'
	DB	00H, 'm', 00H, 'p', 00H, 'o', 00H, 'n', 00H, 'e', 00H, 'n', 00H
	DB	't', 00H, ',', 00H, 'c', 00H, 'l', 00H, 'a', 00H, 's', 00H, 's'
	DB	00H, ' ', 00H, 's', 00H, 't', 00H, 'd', 00H, ':', 00H, ':', 00H
	DB	'a', 00H, 'l', 00H, 'l', 00H, 'o', 00H, 'c', 00H, 'a', 00H, 't'
	DB	00H, 'o', 00H, 'r', 00H, '<', 00H, 's', 00H, 't', 00H, 'r', 00H
	DB	'u', 00H, 'c', 00H, 't', 00H, ' ', 00H, 'I', 00H, 'm', 00H, 'm'
	DB	00H, 'o', 00H, 'r', 00H, 't', 00H, 'a', 00H, 'l', 00H, ':', 00H
	DB	':', 00H, 'T', 00H, 'r', 00H, 'a', 00H, 'n', 00H, 's', 00H, 'f'
	DB	00H, 'o', 00H, 'r', 00H, 'm', 00H, 'C', 00H, 'o', 00H, 'm', 00H
	DB	'p', 00H, 'o', 00H, 'n', 00H, 'e', 00H, 'n', 00H, 't', 00H, '>'
	DB	00H, ' ', 00H, '>', 00H, ':', 00H, ':', 00H, 'b', 00H, 'a', 00H
	DB	'c', 00H, 'k', 00H, 00H, 00H			; `string'
CONST	ENDS
;	COMDAT ??_C@_1BEK@IKCIDBBB@?$AAs?$AAt?$AAd?$AA?3?$AA?3?$AAv?$AAe?$AAc?$AAt?$AAo?$AAr?$AA?$DM?$AAs?$AAt?$AAr@
CONST	SEGMENT
??_C@_1BEK@IKCIDBBB@?$AAs?$AAt?$AAd?$AA?3?$AA?3?$AAv?$AAe?$AAc?$AAt?$AAo?$AAr?$AA?$DM?$AAs?$AAt?$AAr@ DB 's'
	DB	00H, 't', 00H, 'd', 00H, ':', 00H, ':', 00H, 'v', 00H, 'e', 00H
	DB	'c', 00H, 't', 00H, 'o', 00H, 'r', 00H, '<', 00H, 's', 00H, 't'
	DB	00H, 'r', 00H, 'u', 00H, 'c', 00H, 't', 00H, ' ', 00H, 'e', 00H
	DB	'n', 00H, 't', 00H, 't', 00H, ':', 00H, ':', 00H, 'b', 00H, 'a'
	DB	00H, 's', 00H, 'i', 00H, 'c', 00H, '_', 00H, 'r', 00H, 'e', 00H
	DB	'g', 00H, 'i', 00H, 's', 00H, 't', 00H, 'r', 00H, 'y', 00H, '<'
	DB	00H, 'e', 00H, 'n', 00H, 'u', 00H, 'm', 00H, ' ', 00H, 'e', 00H
	DB	'n', 00H, 't', 00H, 't', 00H, ':', 00H, ':', 00H, 'e', 00H, 'n'
	DB	00H, 't', 00H, 'i', 00H, 't', 00H, 'y', 00H, '>', 00H, ':', 00H
	DB	':', 00H, 'p', 00H, 'o', 00H, 'o', 00H, 'l', 00H, '_', 00H, 'd'
	DB	00H, 'a', 00H, 't', 00H, 'a', 00H, ',', 00H, 'c', 00H, 'l', 00H
	DB	'a', 00H, 's', 00H, 's', 00H, ' ', 00H, 's', 00H, 't', 00H, 'd'
	DB	00H, ':', 00H, ':', 00H, 'a', 00H, 'l', 00H, 'l', 00H, 'o', 00H
	DB	'c', 00H, 'a', 00H, 't', 00H, 'o', 00H, 'r', 00H, '<', 00H, 's'
	DB	00H, 't', 00H, 'r', 00H, 'u', 00H, 'c', 00H, 't', 00H, ' ', 00H
	DB	'e', 00H, 'n', 00H, 't', 00H, 't', 00H, ':', 00H, ':', 00H, 'b'
	DB	00H, 'a', 00H, 's', 00H, 'i', 00H, 'c', 00H, '_', 00H, 'r', 00H
	DB	'e', 00H, 'g', 00H, 'i', 00H, 's', 00H, 't', 00H, 'r', 00H, 'y'
	DB	00H, '<', 00H, 'e', 00H, 'n', 00H, 'u', 00H, 'm', 00H, ' ', 00H
	DB	'e', 00H, 'n', 00H, 't', 00H, 't', 00H, ':', 00H, ':', 00H, 'e'
	DB	00H, 'n', 00H, 't', 00H, 'i', 00H, 't', 00H, 'y', 00H, '>', 00H
	DB	':', 00H, ':', 00H, 'p', 00H, 'o', 00H, 'o', 00H, 'l', 00H, '_'
	DB	00H, 'd', 00H, 'a', 00H, 't', 00H, 'a', 00H, '>', 00H, ' ', 00H
	DB	'>', 00H, ':', 00H, ':', 00H, 'o', 00H, 'p', 00H, 'e', 00H, 'r'
	DB	00H, 'a', 00H, 't', 00H, 'o', 00H, 'r', 00H, ' ', 00H, '[', 00H
	DB	']', 00H, 00H, 00H				; `string'
CONST	ENDS
;	COMDAT ??_C@_1EO@GFNCMDLA@?$AAs?$AAt?$AAd?$AA?3?$AA?3?$AA_?$AAA?$AAl?$AAl?$AAo?$AAc?$AAa?$AAt?$AAe?$AA_@
CONST	SEGMENT
??_C@_1EO@GFNCMDLA@?$AAs?$AAt?$AAd?$AA?3?$AA?3?$AA_?$AAA?$AAl?$AAl?$AAo?$AAc?$AAa?$AAt?$AAe?$AA_@ DB 's'
	DB	00H, 't', 00H, 'd', 00H, ':', 00H, ':', 00H, '_', 00H, 'A', 00H
	DB	'l', 00H, 'l', 00H, 'o', 00H, 'c', 00H, 'a', 00H, 't', 00H, 'e'
	DB	00H, '_', 00H, 'm', 00H, 'a', 00H, 'n', 00H, 'u', 00H, 'a', 00H
	DB	'l', 00H, 'l', 00H, 'y', 00H, '_', 00H, 'v', 00H, 'e', 00H, 'c'
	DB	00H, 't', 00H, 'o', 00H, 'r', 00H, '_', 00H, 'a', 00H, 'l', 00H
	DB	'i', 00H, 'g', 00H, 'n', 00H, 'e', 00H, 'd', 00H, 00H, 00H ; `string'
CONST	ENDS
;	COMDAT ??_C@_1KK@CJCILPFC@?$AAs?$AAt?$AAd?$AA?3?$AA?3?$AAv?$AAe?$AAc?$AAt?$AAo?$AAr?$AA?$DM?$AAe?$AAn?$AAu@
CONST	SEGMENT
??_C@_1KK@CJCILPFC@?$AAs?$AAt?$AAd?$AA?3?$AA?3?$AAv?$AAe?$AAc?$AAt?$AAo?$AAr?$AA?$DM?$AAe?$AAn?$AAu@ DB 's'
	DB	00H, 't', 00H, 'd', 00H, ':', 00H, ':', 00H, 'v', 00H, 'e', 00H
	DB	'c', 00H, 't', 00H, 'o', 00H, 'r', 00H, '<', 00H, 'e', 00H, 'n'
	DB	00H, 'u', 00H, 'm', 00H, ' ', 00H, 'e', 00H, 'n', 00H, 't', 00H
	DB	't', 00H, ':', 00H, ':', 00H, 'e', 00H, 'n', 00H, 't', 00H, 'i'
	DB	00H, 't', 00H, 'y', 00H, ',', 00H, 'c', 00H, 'l', 00H, 'a', 00H
	DB	's', 00H, 's', 00H, ' ', 00H, 's', 00H, 't', 00H, 'd', 00H, ':'
	DB	00H, ':', 00H, 'a', 00H, 'l', 00H, 'l', 00H, 'o', 00H, 'c', 00H
	DB	'a', 00H, 't', 00H, 'o', 00H, 'r', 00H, '<', 00H, 'e', 00H, 'n'
	DB	00H, 'u', 00H, 'm', 00H, ' ', 00H, 'e', 00H, 'n', 00H, 't', 00H
	DB	't', 00H, ':', 00H, ':', 00H, 'e', 00H, 'n', 00H, 't', 00H, 'i'
	DB	00H, 't', 00H, 'y', 00H, '>', 00H, ' ', 00H, '>', 00H, ':', 00H
	DB	':', 00H, 'o', 00H, 'p', 00H, 'e', 00H, 'r', 00H, 'a', 00H, 't'
	DB	00H, 'o', 00H, 'r', 00H, ' ', 00H, '[', 00H, ']', 00H, 00H, 00H ; `string'
CONST	ENDS
;	COMDAT ??_C@_1BO@JBMCDLFF@?$AAc?$AAo?$AAn?$AAt?$AAa?$AAi?$AAn?$AAs?$AA?$CI?$AAe?$AAn?$AAt?$AAt?$AA?$CJ@
CONST	SEGMENT
??_C@_1BO@JBMCDLFF@?$AAc?$AAo?$AAn?$AAt?$AAa?$AAi?$AAn?$AAs?$AA?$CI?$AAe?$AAn?$AAt?$AAt?$AA?$CJ@ DB 'c'
	DB	00H, 'o', 00H, 'n', 00H, 't', 00H, 'a', 00H, 'i', 00H, 'n', 00H
	DB	's', 00H, '(', 00H, 'e', 00H, 'n', 00H, 't', 00H, 't', 00H, ')'
	DB	00H, 00H, 00H				; `string'
CONST	ENDS
;	COMDAT ??_C@_1BOE@HEJIJKBH@?$AAs?$AAt?$AAd?$AA?3?$AA?3?$AAv?$AAe?$AAc?$AAt?$AAo?$AAr?$AA?$DM?$AAc?$AAl?$AAa@
CONST	SEGMENT
??_C@_1BOE@HEJIJKBH@?$AAs?$AAt?$AAd?$AA?3?$AA?3?$AAv?$AAe?$AAc?$AAt?$AAo?$AAr?$AA?$DM?$AAc?$AAl?$AAa@ DB 's'
	DB	00H, 't', 00H, 'd', 00H, ':', 00H, ':', 00H, 'v', 00H, 'e', 00H
	DB	'c', 00H, 't', 00H, 'o', 00H, 'r', 00H, '<', 00H, 'c', 00H, 'l'
	DB	00H, 'a', 00H, 's', 00H, 's', 00H, ' ', 00H, 's', 00H, 't', 00H
	DB	'd', 00H, ':', 00H, ':', 00H, 'u', 00H, 'n', 00H, 'i', 00H, 'q'
	DB	00H, 'u', 00H, 'e', 00H, '_', 00H, 'p', 00H, 't', 00H, 'r', 00H
	DB	'<', 00H, 'e', 00H, 'n', 00H, 'u', 00H, 'm', 00H, ' ', 00H, 'e'
	DB	00H, 'n', 00H, 't', 00H, 't', 00H, ':', 00H, ':', 00H, 'e', 00H
	DB	'n', 00H, 't', 00H, 'i', 00H, 't', 00H, 'y', 00H, ' ', 00H, '['
	DB	00H, '0', 00H, ']', 00H, ',', 00H, 's', 00H, 't', 00H, 'r', 00H
	DB	'u', 00H, 'c', 00H, 't', 00H, ' ', 00H, 's', 00H, 't', 00H, 'd'
	DB	00H, ':', 00H, ':', 00H, 'd', 00H, 'e', 00H, 'f', 00H, 'a', 00H
	DB	'u', 00H, 'l', 00H, 't', 00H, '_', 00H, 'd', 00H, 'e', 00H, 'l'
	DB	00H, 'e', 00H, 't', 00H, 'e', 00H, '<', 00H, 'e', 00H, 'n', 00H
	DB	'u', 00H, 'm', 00H, ' ', 00H, 'e', 00H, 'n', 00H, 't', 00H, 't'
	DB	00H, ':', 00H, ':', 00H, 'e', 00H, 'n', 00H, 't', 00H, 'i', 00H
	DB	't', 00H, 'y', 00H, ' ', 00H, '[', 00H, '0', 00H, ']', 00H, '>'
	DB	00H, ' ', 00H, '>', 00H, ',', 00H, 'c', 00H, 'l', 00H, 'a', 00H
	DB	's', 00H, 's', 00H, ' ', 00H, 's', 00H, 't', 00H, 'd', 00H, ':'
	DB	00H, ':', 00H, 'a', 00H, 'l', 00H, 'l', 00H, 'o', 00H, 'c', 00H
	DB	'a', 00H, 't', 00H, 'o', 00H, 'r', 00H, '<', 00H, 'c', 00H, 'l'
	DB	00H, 'a', 00H, 's', 00H, 's', 00H, ' ', 00H, 's', 00H, 't', 00H
	DB	'd', 00H, ':', 00H, ':', 00H, 'u', 00H, 'n', 00H, 'i', 00H, 'q'
	DB	00H, 'u', 00H, 'e', 00H, '_', 00H, 'p', 00H, 't', 00H, 'r', 00H
	DB	'<', 00H, 'e', 00H, 'n', 00H, 'u', 00H, 'm', 00H, ' ', 00H, 'e'
	DB	00H, 'n', 00H, 't', 00H, 't', 00H, ':', 00H, ':', 00H, 'e', 00H
	DB	'n', 00H, 't', 00H, 'i', 00H, 't', 00H, 'y', 00H, ' ', 00H, '['
	DB	00H, '0', 00H, ']', 00H, ',', 00H, 's', 00H, 't', 00H, 'r', 00H
	DB	'u', 00H, 'c', 00H, 't', 00H, ' ', 00H, 's', 00H, 't', 00H, 'd'
	DB	00H, ':', 00H, ':', 00H, 'd', 00H, 'e', 00H, 'f', 00H, 'a', 00H
	DB	'u', 00H, 'l', 00H, 't', 00H, '_', 00H, 'd', 00H, 'e', 00H, 'l'
	DB	00H, 'e', 00H, 't', 00H, 'e', 00H, '<', 00H, 'e', 00H, 'n', 00H
	DB	'u', 00H, 'm', 00H, ' ', 00H, 'e', 00H, 'n', 00H, 't', 00H, 't'
	DB	00H, ':', 00H, ':', 00H, 'e', 00H, 'n', 00H, 't', 00H, 'i', 00H
	DB	't', 00H, 'y', 00H, ' ', 00H, '[', 00H, '0', 00H, ']', 00H, '>'
	DB	00H, ' ', 00H, '>', 00H, ' ', 00H, '>', 00H, ' ', 00H, '>', 00H
	DB	':', 00H, ':', 00H, 'o', 00H, 'p', 00H, 'e', 00H, 'r', 00H, 'a'
	DB	00H, 't', 00H, 'o', 00H, 'r', 00H, ' ', 00H, '[', 00H, ']', 00H
	DB	00H, 00H					; `string'
CONST	ENDS
;	COMDAT ??_C@_1PC@INDIMHMO@?$AAs?$AAt?$AAd?$AA?3?$AA?3?$AAv?$AAe?$AAc?$AAt?$AAo?$AAr?$AA?$DM?$AAs?$AAt?$AAr@
CONST	SEGMENT
??_C@_1PC@INDIMHMO@?$AAs?$AAt?$AAd?$AA?3?$AA?3?$AAv?$AAe?$AAc?$AAt?$AAo?$AAr?$AA?$DM?$AAs?$AAt?$AAr@ DB 's'
	DB	00H, 't', 00H, 'd', 00H, ':', 00H, ':', 00H, 'v', 00H, 'e', 00H
	DB	'c', 00H, 't', 00H, 'o', 00H, 'r', 00H, '<', 00H, 's', 00H, 't'
	DB	00H, 'r', 00H, 'u', 00H, 'c', 00H, 't', 00H, ' ', 00H, 'I', 00H
	DB	'm', 00H, 'm', 00H, 'o', 00H, 'r', 00H, 't', 00H, 'a', 00H, 'l'
	DB	00H, ':', 00H, ':', 00H, 'T', 00H, 'r', 00H, 'a', 00H, 'n', 00H
	DB	's', 00H, 'f', 00H, 'o', 00H, 'r', 00H, 'm', 00H, 'C', 00H, 'o'
	DB	00H, 'm', 00H, 'p', 00H, 'o', 00H, 'n', 00H, 'e', 00H, 'n', 00H
	DB	't', 00H, ',', 00H, 'c', 00H, 'l', 00H, 'a', 00H, 's', 00H, 's'
	DB	00H, ' ', 00H, 's', 00H, 't', 00H, 'd', 00H, ':', 00H, ':', 00H
	DB	'a', 00H, 'l', 00H, 'l', 00H, 'o', 00H, 'c', 00H, 'a', 00H, 't'
	DB	00H, 'o', 00H, 'r', 00H, '<', 00H, 's', 00H, 't', 00H, 'r', 00H
	DB	'u', 00H, 'c', 00H, 't', 00H, ' ', 00H, 'I', 00H, 'm', 00H, 'm'
	DB	00H, 'o', 00H, 'r', 00H, 't', 00H, 'a', 00H, 'l', 00H, ':', 00H
	DB	':', 00H, 'T', 00H, 'r', 00H, 'a', 00H, 'n', 00H, 's', 00H, 'f'
	DB	00H, 'o', 00H, 'r', 00H, 'm', 00H, 'C', 00H, 'o', 00H, 'm', 00H
	DB	'p', 00H, 'o', 00H, 'n', 00H, 'e', 00H, 'n', 00H, 't', 00H, '>'
	DB	00H, ' ', 00H, '>', 00H, ':', 00H, ':', 00H, 'o', 00H, 'p', 00H
	DB	'e', 00H, 'r', 00H, 'a', 00H, 't', 00H, 'o', 00H, 'r', 00H, ' '
	DB	00H, '[', 00H, ']', 00H, 00H, 00H		; `string'
CONST	ENDS
;	COMDAT ??_C@_0BA@FOIKENOD@vector?5too?5long@
CONST	SEGMENT
??_C@_0BA@FOIKENOD@vector?5too?5long@ DB 'vector too long', 00H ; `string'
CONST	ENDS
;	COMDAT ??_C@_1BM@OFBGKGCB@?$AAv?$AAa?$AAl?$AAi?$AAd?$AA?$CI?$AAe?$AAn?$AAt?$AAi?$AAt?$AAy?$AA?$CJ@
CONST	SEGMENT
??_C@_1BM@OFBGKGCB@?$AAv?$AAa?$AAl?$AAi?$AAd?$AA?$CI?$AAe?$AAn?$AAt?$AAi?$AAt?$AAy?$AA?$CJ@ DB 'v'
	DB	00H, 'a', 00H, 'l', 00H, 'i', 00H, 'd', 00H, '(', 00H, 'e', 00H
	DB	'n', 00H, 't', 00H, 'i', 00H, 't', 00H, 'y', 00H, ')', 00H, 00H
	DB	00H						; `string'
CONST	ENDS
;	COMDAT ??_7?$pool_handler@UTransformComponent@Immortal@@@?$basic_registry@W4entity@entt@@@entt@@6B@
CONST	SEGMENT
??_7?$pool_handler@UTransformComponent@Immortal@@@?$basic_registry@W4entity@entt@@@entt@@6B@ DQ FLAT:??_R4?$pool_handler@UTransformComponent@Immortal@@@?$basic_registry@W4entity@entt@@@entt@@6B@ ; entt::basic_registry<enum entt::entity>::pool_handler<Immortal::TransformComponent>::`vftable'
	DQ	FLAT:??_E?$pool_handler@UTransformComponent@Immortal@@@?$basic_registry@W4entity@entt@@@entt@@UEAAPEAXI@Z
	DQ	FLAT:?swap@?$storage@W4entity@entt@@UTransformComponent@Immortal@@X@entt@@UEAAXW4entity@2@0@Z
CONST	ENDS
;	COMDAT ??_7?$storage@W4entity@entt@@UTransformComponent@Immortal@@X@entt@@6B@
CONST	SEGMENT
??_7?$storage@W4entity@entt@@UTransformComponent@Immortal@@X@entt@@6B@ DQ FLAT:??_R4?$storage@W4entity@entt@@UTransformComponent@Immortal@@X@entt@@6B@ ; entt::storage<enum entt::entity,Immortal::TransformComponent,void>::`vftable'
	DQ	FLAT:??_E?$storage@W4entity@entt@@UTransformComponent@Immortal@@X@entt@@UEAAPEAXI@Z
	DQ	FLAT:?swap@?$storage@W4entity@entt@@UTransformComponent@Immortal@@X@entt@@UEAAXW4entity@2@0@Z
CONST	ENDS
;	COMDAT ??_7?$sparse_set@W4entity@entt@@@entt@@6B@
CONST	SEGMENT
??_7?$sparse_set@W4entity@entt@@@entt@@6B@ DQ FLAT:??_R4?$sparse_set@W4entity@entt@@@entt@@6B@ ; entt::sparse_set<enum entt::entity>::`vftable'
	DQ	FLAT:??_E?$sparse_set@W4entity@entt@@@entt@@UEAAPEAXI@Z
	DQ	FLAT:?swap@?$sparse_set@W4entity@entt@@@entt@@UEAAXW4entity@2@0@Z
CONST	ENDS
;	COMDAT ??_C@_1BK@MHIKGOKE@?$AA?3?$AAA?$AAM?$AA?3?$AAa?$AAm?$AA?3?$AAP?$AAM?$AA?3?$AAp?$AAm@
CONST	SEGMENT
??_C@_1BK@MHIKGOKE@?$AA?3?$AAA?$AAM?$AA?3?$AAa?$AAm?$AA?3?$AAP?$AAM?$AA?3?$AAp?$AAm@ DB ':'
	DB	00H, 'A', 00H, 'M', 00H, ':', 00H, 'a', 00H, 'm', 00H, ':', 00H
	DB	'P', 00H, 'M', 00H, ':', 00H, 'p', 00H, 'm', 00H, 00H, 00H ; `string'
CONST	ENDS
;	COMDAT ??_C@_0N@LPFKKEBD@?3AM?3am?3PM?3pm@
CONST	SEGMENT
??_C@_0N@LPFKKEBD@?3AM?3am?3PM?3pm@ DB ':AM:am:PM:pm', 00H ; `string'
CONST	ENDS
;	COMDAT ??_C@_1DE@IPIBMNGD@?$AA?$CC?$AAv?$AAe?$AAc?$AAt?$AAo?$AAr?$AA?5?$AAe?$AAm?$AAp?$AAt?$AAy?$AA?5?$AAb@
CONST	SEGMENT
??_C@_1DE@IPIBMNGD@?$AA?$CC?$AAv?$AAe?$AAc?$AAt?$AAo?$AAr?$AA?5?$AAe?$AAm?$AAp?$AAt?$AAy?$AA?5?$AAb@ DB '"'
	DB	00H, 'v', 00H, 'e', 00H, 'c', 00H, 't', 00H, 'o', 00H, 'r', 00H
	DB	' ', 00H, 'e', 00H, 'm', 00H, 'p', 00H, 't', 00H, 'y', 00H, ' '
	DB	00H, 'b', 00H, 'e', 00H, 'f', 00H, 'o', 00H, 'r', 00H, 'e', 00H
	DB	' ', 00H, 'p', 00H, 'o', 00H, 'p', 00H, '"', 00H, 00H, 00H ; `string'
CONST	ENDS
;	COMDAT ??_C@_0BI@PJHAPDF@vector?5empty?5before?5pop@
CONST	SEGMENT
??_C@_0BI@PJHAPDF@vector?5empty?5before?5pop@ DB 'vector empty before pop'
	DB	00H						; `string'
CONST	ENDS
;	COMDAT ??_C@_1EA@OBAHGFFK@?$AA?$CC?$AAb?$AAa?$AAc?$AAk?$AA?$CI?$AA?$CJ?$AA?5?$AAc?$AAa?$AAl?$AAl?$AAe?$AAd?$AA?5@
CONST	SEGMENT
??_C@_1EA@OBAHGFFK@?$AA?$CC?$AAb?$AAa?$AAc?$AAk?$AA?$CI?$AA?$CJ?$AA?5?$AAc?$AAa?$AAl?$AAl?$AAe?$AAd?$AA?5@ DB '"'
	DB	00H, 'b', 00H, 'a', 00H, 'c', 00H, 'k', 00H, '(', 00H, ')', 00H
	DB	' ', 00H, 'c', 00H, 'a', 00H, 'l', 00H, 'l', 00H, 'e', 00H, 'd'
	DB	00H, ' ', 00H, 'o', 00H, 'n', 00H, ' ', 00H, 'e', 00H, 'm', 00H
	DB	'p', 00H, 't', 00H, 'y', 00H, ' ', 00H, 'v', 00H, 'e', 00H, 'c'
	DB	00H, 't', 00H, 'o', 00H, 'r', 00H, '"', 00H, 00H, 00H ; `string'
CONST	ENDS
;	COMDAT ??_C@_0BO@OKMPKPLD@back?$CI?$CJ?5called?5on?5empty?5vector@
CONST	SEGMENT
??_C@_0BO@OKMPKPLD@back?$CI?$CJ?5called?5on?5empty?5vector@ DB 'back() ca'
	DB	'lled on empty vector', 00H			; `string'
CONST	ENDS
;	COMDAT ??_C@_15ELGJDCCL@?$AAf?$AAn@
CONST	SEGMENT
??_C@_15ELGJDCCL@?$AAf?$AAn@ DB 'f', 00H, 'n', 00H, 00H, 00H ; `string'
CONST	ENDS
;	COMDAT ??_C@_1EA@LEKOKFNB@?$AA?$CC?$AAv?$AAe?$AAc?$AAt?$AAo?$AAr?$AA?5?$AAs?$AAu?$AAb?$AAs?$AAc?$AAr?$AAi@
CONST	SEGMENT
??_C@_1EA@LEKOKFNB@?$AA?$CC?$AAv?$AAe?$AAc?$AAt?$AAo?$AAr?$AA?5?$AAs?$AAu?$AAb?$AAs?$AAc?$AAr?$AAi@ DB '"'
	DB	00H, 'v', 00H, 'e', 00H, 'c', 00H, 't', 00H, 'o', 00H, 'r', 00H
	DB	' ', 00H, 's', 00H, 'u', 00H, 'b', 00H, 's', 00H, 'c', 00H, 'r'
	DB	00H, 'i', 00H, 'p', 00H, 't', 00H, ' ', 00H, 'o', 00H, 'u', 00H
	DB	't', 00H, ' ', 00H, 'o', 00H, 'f', 00H, ' ', 00H, 'r', 00H, 'a'
	DB	00H, 'n', 00H, 'g', 00H, 'e', 00H, '"', 00H, 00H, 00H ; `string'
CONST	ENDS
;	COMDAT ??_C@_1GK@LAKJODIA@?$AAD?$AA?3?$AA?2?$AAC?$AAo?$AAd?$AAe?$AA?2?$AAC?$AA?2?$AAI?$AAm?$AAm?$AAo?$AAr@
CONST	SEGMENT
??_C@_1GK@LAKJODIA@?$AAD?$AA?3?$AA?2?$AAC?$AAo?$AAd?$AAe?$AA?2?$AAC?$AA?2?$AAI?$AAm?$AAm?$AAo?$AAr@ DB 'D'
	DB	00H, ':', 00H, '\', 00H, 'C', 00H, 'o', 00H, 'd', 00H, 'e', 00H
	DB	'\', 00H, 'C', 00H, '\', 00H, 'I', 00H, 'm', 00H, 'm', 00H, 'o'
	DB	00H, 'r', 00H, 't', 00H, 'a', 00H, 'l', 00H, '\', 00H, 'I', 00H
	DB	'm', 00H, 'm', 00H, 'o', 00H, 'r', 00H, 't', 00H, 'a', 00H, 'l'
	DB	00H, 'E', 00H, 'd', 00H, 'i', 00H, 't', 00H, 'o', 00H, 'r', 00H
	DB	'\', 00H, 's', 00H, 't', 00H, 'd', 00H, '\', 00H, 'i', 00H, 'n'
	DB	00H, 'c', 00H, 'l', 00H, 'u', 00H, 'd', 00H, 'e', 00H, '\', 00H
	DB	'v', 00H, 'e', 00H, 'c', 00H, 't', 00H, 'o', 00H, 'r', 00H, 00H
	DB	00H						; `string'
CONST	ENDS
;	COMDAT ??_C@_0DF@COHCKIEB@D?3?2Code?2C?2Immortal?2ImmortalEdit@
CONST	SEGMENT
??_C@_0DF@COHCKIEB@D?3?2Code?2C?2Immortal?2ImmortalEdit@ DB 'D:\Code\C\Im'
	DB	'mortal\ImmortalEditor\std\include\vector', 00H ; `string'
CONST	ENDS
;	COMDAT ??_C@_0BO@PFKOHNJC@vector?5subscript?5out?5of?5range@
CONST	SEGMENT
??_C@_0BO@PFKOHNJC@vector?5subscript?5out?5of?5range@ DB 'vector subscrip'
	DB	't out of range', 00H			; `string'
CONST	ENDS
;	COMDAT ??_7CubeController@Immortal@@6B@
CONST	SEGMENT
??_7CubeController@Immortal@@6B@ DQ FLAT:??_R4CubeController@Immortal@@6B@ ; Immortal::CubeController::`vftable'
	DQ	FLAT:??_ECubeController@Immortal@@UEAAPEAXI@Z
	DQ	FLAT:?OnStart@CubeController@Immortal@@UEAAXXZ
	DQ	FLAT:?OnDestroy@CubeController@Immortal@@UEAAXXZ
	DQ	FLAT:?OnUpdate@CubeController@Immortal@@UEAAXXZ
CONST	ENDS
;	COMDAT ??_7ScriptableObject@Immortal@@6B@
CONST	SEGMENT
??_7ScriptableObject@Immortal@@6B@ DQ FLAT:??_R4ScriptableObject@Immortal@@6B@ ; Immortal::ScriptableObject::`vftable'
	DQ	FLAT:??_EScriptableObject@Immortal@@UEAAPEAXI@Z
	DQ	FLAT:?OnStart@ScriptableObject@Immortal@@MEAAXXZ
	DQ	FLAT:?OnDestroy@ScriptableObject@Immortal@@MEAAXXZ
	DQ	FLAT:?OnUpdate@ScriptableObject@Immortal@@MEAAXXZ
CONST	ENDS
;	COMDAT ??_C@_1HA@LMCDLKAB@?$AAD?$AA?3?$AA?2?$AAC?$AAo?$AAd?$AAe?$AA?2?$AAC?$AA?2?$AAI?$AAm?$AAm?$AAo?$AAr@
CONST	SEGMENT
??_C@_1HA@LMCDLKAB@?$AAD?$AA?3?$AA?2?$AAC?$AAo?$AAd?$AAe?$AA?2?$AAC?$AA?2?$AAI?$AAm?$AAm?$AAo?$AAr@ DB 'D'
	DB	00H, ':', 00H, '\', 00H, 'C', 00H, 'o', 00H, 'd', 00H, 'e', 00H
	DB	'\', 00H, 'C', 00H, '\', 00H, 'I', 00H, 'm', 00H, 'm', 00H, 'o'
	DB	00H, 'r', 00H, 't', 00H, 'a', 00H, 'l', 00H, '\', 00H, 'I', 00H
	DB	'm', 00H, 'm', 00H, 'o', 00H, 'r', 00H, 't', 00H, 'a', 00H, 'l'
	DB	00H, '\', 00H, 's', 00H, 'r', 00H, 'c', 00H, '\', 00H, 'I', 00H
	DB	'm', 00H, 'm', 00H, 'o', 00H, 'r', 00H, 't', 00H, 'a', 00H, 'l'
	DB	00H, '\', 00H, 'S', 00H, 'c', 00H, 'e', 00H, 'n', 00H, 'e', 00H
	DB	'\', 00H, 'e', 00H, 'n', 00H, 't', 00H, 't', 00H, '.', 00H, 'h'
	DB	00H, 'p', 00H, 'p', 00H, 00H, 00H		; `string'
CONST	ENDS
;	COMDAT ?null@entt@@3V0internal@1@B
CONST	SEGMENT
?null@entt@@3V0internal@1@B	ORG $+1			; entt::null
CONST	ENDS
;	COMDAT ??_C@_03MCADLMAF@off@
CONST	SEGMENT
??_C@_03MCADLMAF@off@ DB 'off', 00H			; `string'
CONST	ENDS
;	COMDAT ??_C@_08CBBMEOFB@critical@
CONST	SEGMENT
??_C@_08CBBMEOFB@critical@ DB 'critical', 00H		; `string'
CONST	ENDS
;	COMDAT ??_C@_05KKCIMGE@error@
CONST	SEGMENT
??_C@_05KKCIMGE@error@ DB 'error', 00H			; `string'
CONST	ENDS
;	COMDAT ??_C@_07FPLKDJGL@warning@
CONST	SEGMENT
??_C@_07FPLKDJGL@warning@ DB 'warning', 00H		; `string'
CONST	ENDS
;	COMDAT ??_C@_04NIDJFNBE@info@
CONST	SEGMENT
??_C@_04NIDJFNBE@info@ DB 'info', 00H			; `string'
CONST	ENDS
;	COMDAT ??_C@_05GFCDIDHO@debug@
CONST	SEGMENT
??_C@_05GFCDIDHO@debug@ DB 'debug', 00H			; `string'
CONST	ENDS
;	COMDAT ??_C@_05IMBNNINJ@trace@
CONST	SEGMENT
??_C@_05IMBNNINJ@trace@ DB 'trace', 00H			; `string'
CONST	ENDS
;	COMDAT ??_C@_0DG@EJEFLLKM@D?3?2Code?2C?2Immortal?2ImmortalEdit@
CONST	SEGMENT
??_C@_0DG@EJEFLLKM@D?3?2Code?2C?2Immortal?2ImmortalEdit@ DB 'D:\Code\C\Im'
	DB	'mortal\ImmortalEditor\std\include\xlocnum', 00H ; `string'
CONST	ENDS
;	COMDAT ?__LINE__Var@?0??_Maklocwcs@std@@YAPEA_WPEB_W@Z@4JA
_DATA	SEGMENT
?__LINE__Var@?0??_Maklocwcs@std@@YAPEA_WPEB_W@Z@4JA DD 05aH ; `std::_Maklocwcs'::`1'::__LINE__Var
_DATA	ENDS
;	COMDAT ??_C@_0DG@MKAILJAN@D?3?2Code?2C?2Immortal?2ImmortalEdit@
CONST	SEGMENT
??_C@_0DG@MKAILJAN@D?3?2Code?2C?2Immortal?2ImmortalEdit@ DB 'D:\Code\C\Im'
	DB	'mortal\ImmortalEditor\std\include\xlocale', 00H ; `string'
CONST	ENDS
;	COMDAT ??_C@_1CG@JNLFBNGN@?$AA?$CC?$AAi?$AAn?$AAv?$AAa?$AAl?$AAi?$AAd?$AA?5?$AAa?$AAr?$AAg?$AAu?$AAm?$AAe@
CONST	SEGMENT
??_C@_1CG@JNLFBNGN@?$AA?$CC?$AAi?$AAn?$AAv?$AAa?$AAl?$AAi?$AAd?$AA?5?$AAa?$AAr?$AAg?$AAu?$AAm?$AAe@ DB '"'
	DB	00H, 'i', 00H, 'n', 00H, 'v', 00H, 'a', 00H, 'l', 00H, 'i', 00H
	DB	'd', 00H, ' ', 00H, 'a', 00H, 'r', 00H, 'g', 00H, 'u', 00H, 'm'
	DB	00H, 'e', 00H, 'n', 00H, 't', 00H, '"', 00H, 00H, 00H ; `string'
CONST	ENDS
;	COMDAT ??_C@_1EK@NIFDJFDG@?$AAs?$AAt?$AAd?$AA?3?$AA?3?$AA_?$AAA?$AAd?$AAj?$AAu?$AAs?$AAt?$AA_?$AAm?$AAa@
CONST	SEGMENT
??_C@_1EK@NIFDJFDG@?$AAs?$AAt?$AAd?$AA?3?$AA?3?$AA_?$AAA?$AAd?$AAj?$AAu?$AAs?$AAt?$AA_?$AAm?$AAa@ DB 's'
	DB	00H, 't', 00H, 'd', 00H, ':', 00H, ':', 00H, '_', 00H, 'A', 00H
	DB	'd', 00H, 'j', 00H, 'u', 00H, 's', 00H, 't', 00H, '_', 00H, 'm'
	DB	00H, 'a', 00H, 'n', 00H, 'u', 00H, 'a', 00H, 'l', 00H, 'l', 00H
	DB	'y', 00H, '_', 00H, 'v', 00H, 'e', 00H, 'c', 00H, 't', 00H, 'o'
	DB	00H, 'r', 00H, '_', 00H, 'a', 00H, 'l', 00H, 'i', 00H, 'g', 00H
	DB	'n', 00H, 'e', 00H, 'd', 00H, 00H, 00H	; `string'
CONST	ENDS
;	COMDAT ??_C@_1GM@DDOKJDGJ@?$AAD?$AA?3?$AA?2?$AAC?$AAo?$AAd?$AAe?$AA?2?$AAC?$AA?2?$AAI?$AAm?$AAm?$AAo?$AAr@
CONST	SEGMENT
??_C@_1GM@DDOKJDGJ@?$AAD?$AA?3?$AA?2?$AAC?$AAo?$AAd?$AAe?$AA?2?$AAC?$AA?2?$AAI?$AAm?$AAm?$AAo?$AAr@ DB 'D'
	DB	00H, ':', 00H, '\', 00H, 'C', 00H, 'o', 00H, 'd', 00H, 'e', 00H
	DB	'\', 00H, 'C', 00H, '\', 00H, 'I', 00H, 'm', 00H, 'm', 00H, 'o'
	DB	00H, 'r', 00H, 't', 00H, 'a', 00H, 'l', 00H, '\', 00H, 'I', 00H
	DB	'm', 00H, 'm', 00H, 'o', 00H, 'r', 00H, 't', 00H, 'a', 00H, 'l'
	DB	00H, 'E', 00H, 'd', 00H, 'i', 00H, 't', 00H, 'o', 00H, 'r', 00H
	DB	'\', 00H, 's', 00H, 't', 00H, 'd', 00H, '\', 00H, 'i', 00H, 'n'
	DB	00H, 'c', 00H, 'l', 00H, 'u', 00H, 'd', 00H, 'e', 00H, '\', 00H
	DB	'x', 00H, 'm', 00H, 'e', 00H, 'm', 00H, 'o', 00H, 'r', 00H, 'y'
	DB	00H, 00H, 00H				; `string'
CONST	ENDS
;	COMDAT ??_C@_0DG@GCMEILKK@D?3?2Code?2C?2Immortal?2ImmortalEdit@
CONST	SEGMENT
??_C@_0DG@GCMEILKK@D?3?2Code?2C?2Immortal?2ImmortalEdit@ DB 'D:\Code\C\Im'
	DB	'mortal\ImmortalEditor\std\include\xmemory', 00H ; `string'
CONST	ENDS
;	COMDAT ??_C@_02DKCKIIND@?$CFs@
CONST	SEGMENT
??_C@_02DKCKIIND@?$CFs@ DB '%s', 00H			; `string'
CONST	ENDS
;	COMDAT ??_C@_0BB@FCMFBGOM@invalid?5argument@
CONST	SEGMENT
??_C@_0BB@FCMFBGOM@invalid?5argument@ DB 'invalid argument', 00H ; `string'
CONST	ENDS
;	COMDAT ?__LINE__Var@?0??_Adjust_manually_vector_aligned@std@@YAXAEAPEAXAEA_K@Z@4JA
_DATA	SEGMENT
?__LINE__Var@?0??_Adjust_manually_vector_aligned@std@@YAXAEAPEAXAEA_K@Z@4JA DD 084H ; `std::_Adjust_manually_vector_aligned'::`1'::__LINE__Var
_DATA	ENDS
;	COMDAT _CT??_R0?AVexception@std@@@8??0exception@std@@QEAA@AEBV01@@Z24
xdata$x	SEGMENT
_CT??_R0?AVexception@std@@@8??0exception@std@@QEAA@AEBV01@@Z24 DD 00H
	DD	imagerel ??_R0?AVexception@std@@@8
	DD	00H
	DD	0ffffffffH
	ORG $+4
	DD	018H
	DD	imagerel ??0exception@std@@QEAA@AEBV01@@Z
xdata$x	ENDS
;	COMDAT ??_R0?AVexception@std@@@8
data$r	SEGMENT
??_R0?AVexception@std@@@8 DQ FLAT:??_7type_info@@6B@	; std::exception `RTTI Type Descriptor'
	DQ	0000000000000000H
	DB	'.?AVexception@std@@', 00H
data$r	ENDS
;	COMDAT _CT??_R0?AVbad_alloc@std@@@8??0bad_alloc@std@@QEAA@AEBV01@@Z24
xdata$x	SEGMENT
_CT??_R0?AVbad_alloc@std@@@8??0bad_alloc@std@@QEAA@AEBV01@@Z24 DD 010H
	DD	imagerel ??_R0?AVbad_alloc@std@@@8
	DD	00H
	DD	0ffffffffH
	ORG $+4
	DD	018H
	DD	imagerel ??0bad_alloc@std@@QEAA@AEBV01@@Z
xdata$x	ENDS
;	COMDAT ??_R0?AVbad_alloc@std@@@8
data$r	SEGMENT
??_R0?AVbad_alloc@std@@@8 DQ FLAT:??_7type_info@@6B@	; std::bad_alloc `RTTI Type Descriptor'
	DQ	0000000000000000H
	DB	'.?AVbad_alloc@std@@', 00H
data$r	ENDS
;	COMDAT _CT??_R0?AVbad_array_new_length@std@@@8??0bad_array_new_length@std@@QEAA@AEBV01@@Z24
xdata$x	SEGMENT
_CT??_R0?AVbad_array_new_length@std@@@8??0bad_array_new_length@std@@QEAA@AEBV01@@Z24 DD 00H
	DD	imagerel ??_R0?AVbad_array_new_length@std@@@8
	DD	00H
	DD	0ffffffffH
	ORG $+4
	DD	018H
	DD	imagerel ??0bad_array_new_length@std@@QEAA@AEBV01@@Z
xdata$x	ENDS
;	COMDAT ??_R0?AVbad_array_new_length@std@@@8
data$r	SEGMENT
??_R0?AVbad_array_new_length@std@@@8 DQ FLAT:??_7type_info@@6B@ ; std::bad_array_new_length `RTTI Type Descriptor'
	DQ	0000000000000000H
	DB	'.?AVbad_array_new_length@std@@', 00H
data$r	ENDS
;	COMDAT _CTA3?AVbad_array_new_length@std@@
xdata$x	SEGMENT
_CTA3?AVbad_array_new_length@std@@ DD 03H
	DD	imagerel _CT??_R0?AVbad_array_new_length@std@@@8??0bad_array_new_length@std@@QEAA@AEBV01@@Z24
	DD	imagerel _CT??_R0?AVbad_alloc@std@@@8??0bad_alloc@std@@QEAA@AEBV01@@Z24
	DD	imagerel _CT??_R0?AVexception@std@@@8??0exception@std@@QEAA@AEBV01@@Z24
xdata$x	ENDS
;	COMDAT _TI3?AVbad_array_new_length@std@@
xdata$x	SEGMENT
_TI3?AVbad_array_new_length@std@@ DD 00H
	DD	imagerel ??1bad_array_new_length@std@@UEAA@XZ
	DD	00H
	DD	imagerel _CTA3?AVbad_array_new_length@std@@
xdata$x	ENDS
;	COMDAT ??_C@_0BF@KINCDENJ@bad?5array?5new?5length@
CONST	SEGMENT
??_C@_0BF@KINCDENJ@bad?5array?5new?5length@ DB 'bad array new length', 00H ; `string'
CONST	ENDS
;	COMDAT ??_7bad_array_new_length@std@@6B@
CONST	SEGMENT
??_7bad_array_new_length@std@@6B@ DQ FLAT:??_R4bad_array_new_length@std@@6B@ ; std::bad_array_new_length::`vftable'
	DQ	FLAT:??_Ebad_array_new_length@std@@UEAAPEAXI@Z
	DQ	FLAT:?what@exception@std@@UEBAPEBDXZ
CONST	ENDS
;	COMDAT ??_7bad_alloc@std@@6B@
CONST	SEGMENT
??_7bad_alloc@std@@6B@ DQ FLAT:??_R4bad_alloc@std@@6B@	; std::bad_alloc::`vftable'
	DQ	FLAT:??_Ebad_alloc@std@@UEAAPEAXI@Z
	DQ	FLAT:?what@exception@std@@UEBAPEBDXZ
CONST	ENDS
;	COMDAT ??_C@_0BC@EOODALEL@Unknown?5exception@
CONST	SEGMENT
??_C@_0BC@EOODALEL@Unknown?5exception@ DB 'Unknown exception', 00H ; `string'
CONST	ENDS
;	COMDAT ??_7exception@std@@6B@
CONST	SEGMENT
??_7exception@std@@6B@ DQ FLAT:??_R4exception@std@@6B@	; std::exception::`vftable'
	DQ	FLAT:??_Eexception@std@@UEAAPEAXI@Z
	DQ	FLAT:?what@exception@std@@UEBAPEBDXZ
CONST	ENDS
;	COMDAT xdata
xdata	SEGMENT
$unwind$??$forward@PEAV?$sparse_set@W4entity@entt@@@entt@@@std@@YA$$QEAPEAV?$sparse_set@W4entity@entt@@@entt@@AEAPEAV12@@Z DD 025052a01H
	DD	010e2313H
	DD	07007001dH
	DD	05006H
xdata	ENDS
;	COMDAT xdata
xdata	SEGMENT
$unwind$??$exchange@PEAV?$sparse_set@W4entity@entt@@@entt@@$$T@std@@YAPEAV?$sparse_set@W4entity@entt@@@entt@@AEAPEAV12@$$QEA$$T@Z DD 025052f01H
	DD	01132318H
	DD	0700c0021H
	DD	0500bH
xdata	ENDS
;	COMDAT xdata
xdata	SEGMENT
$unwind$??$?0U?$default_delete@V?$sparse_set@W4entity@entt@@@entt@@@std@@PEAV?$sparse_set@W4entity@entt@@@entt@@@?$_Compressed_pair@U?$default_delete@V?$sparse_set@W4entity@entt@@@entt@@@std@@PEAV?$sparse_set@W4entity@entt@@@entt@@$00@std@@QEAA@U_One_then_variadic_args_t@1@$$QEAU?$default_delete@V?$sparse_set@W4entity@entt@@@entt@@@1@$$QEAPEAV?$sparse_set@W4entity@entt@@@entt@@@Z DD 025053801H
	DD	011c2321H
	DD	07015001dH
	DD	05014H
xdata	ENDS
;	COMDAT xdata
xdata	SEGMENT
$unwind$??$forward@U?$default_delete@V?$sparse_set@W4entity@entt@@@entt@@@std@@@std@@YA$$QEAU?$default_delete@V?$sparse_set@W4entity@entt@@@entt@@@0@AEAU10@@Z DD 025052a01H
	DD	010e2313H
	DD	07007001dH
	DD	05006H
xdata	ENDS
;	COMDAT xdata
xdata	SEGMENT
$unwind$??$?0$$V@?$_Compressed_pair@U?$default_delete@V?$sparse_set@W4entity@entt@@@entt@@@std@@PEAV?$sparse_set@W4entity@entt@@@entt@@$00@std@@QEAA@U_Zero_then_variadic_args_t@1@@Z DD 025052e01H
	DD	01122317H
	DD	0700b001dH
	DD	0500aH
xdata	ENDS
;	COMDAT xdata
xdata	SEGMENT
$unwind$??$?0U?$default_delete@V?$sparse_set@W4entity@entt@@@entt@@@std@@$0A@@?$unique_ptr@V?$sparse_set@W4entity@entt@@@entt@@U?$default_delete@V?$sparse_set@W4entity@entt@@@entt@@@std@@@std@@QEAA@XZ DD 025052a01H
	DD	010e2313H
	DD	070070021H
	DD	05006H
xdata	ENDS
;	COMDAT xdata
xdata	SEGMENT
$unwind$??$construct@Upool_data@?$basic_registry@W4entity@entt@@@entt@@U123@@?$_Default_allocator_traits@V?$allocator@Upool_data@?$basic_registry@W4entity@entt@@@entt@@@std@@@std@@SAXAEAV?$allocator@Upool_data@?$basic_registry@W4entity@entt@@@entt@@@1@QEAUpool_data@?$basic_registry@W4entity@entt@@@entt@@$$QEAU345@@Z DD 025053401H
	DD	0118231dH
	DD	070110021H
	DD	05010H
xdata	ENDS
;	COMDAT xdata
xdata	SEGMENT
$unwind$??$forward@Upool_data@?$basic_registry@W4entity@entt@@@entt@@@std@@YA$$QEAUpool_data@?$basic_registry@W4entity@entt@@@entt@@AEAU123@@Z DD 025052a01H
	DD	010e2313H
	DD	07007001dH
	DD	05006H
xdata	ENDS
;	COMDAT xdata
xdata	SEGMENT
$unwind$??$_Emplace_back@Upool_data@?$basic_registry@W4entity@entt@@@entt@@@?$_Uninitialized_backout_al@V?$allocator@Upool_data@?$basic_registry@W4entity@entt@@@entt@@@std@@@std@@QEAAX$$QEAUpool_data@?$basic_registry@W4entity@entt@@@entt@@@Z DD 025052f01H
	DD	01132318H
	DD	0700c0021H
	DD	0500bH
xdata	ENDS
;	COMDAT xdata
xdata	SEGMENT
$unwind$??$move@AEAUpool_data@?$basic_registry@W4entity@entt@@@entt@@@std@@YA$$QEAUpool_data@?$basic_registry@W4entity@entt@@@entt@@AEAU123@@Z DD 025052a01H
	DD	010e2313H
	DD	07007001dH
	DD	05006H
xdata	ENDS
;	COMDAT xdata
xdata	SEGMENT
$unwind$??$_Get_unwrapped@AEBQEAUpool_data@?$basic_registry@W4entity@entt@@@entt@@@std@@YA@AEBQEAUpool_data@?$basic_registry@W4entity@entt@@@entt@@@Z DD 025052a01H
	DD	010e2313H
	DD	07007001dH
	DD	05006H
xdata	ENDS
;	COMDAT xdata
xdata	SEGMENT
$unwind$??$construct@Upool_data@?$basic_registry@W4entity@entt@@@entt@@$$V@?$_Default_allocator_traits@V?$allocator@Upool_data@?$basic_registry@W4entity@entt@@@entt@@@std@@@std@@SAXAEAV?$allocator@Upool_data@?$basic_registry@W4entity@entt@@@entt@@@1@QEAUpool_data@?$basic_registry@W4entity@entt@@@entt@@@Z DD 025052f01H
	DD	01132318H
	DD	0700c0021H
	DD	0500bH
xdata	ENDS
;	COMDAT xdata
xdata	SEGMENT
$unwind$?dtor$0@?0???$_Uninitialized_move@PEAUpool_data@?$basic_registry@W4entity@entt@@@entt@@V?$allocator@Upool_data@?$basic_registry@W4entity@entt@@@entt@@@std@@@std@@YAPEAUpool_data@?$basic_registry@W4entity@entt@@@entt@@QEAU123@0PEAU123@AEAV?$allocator@Upool_data@?$basic_registry@W4entity@entt@@@entt@@@0@@Z@4HA DD 031001H
	DD	0700c4210H
	DD	0500bH
xdata	ENDS
;	COMDAT xdata
xdata	SEGMENT
